---
triple:          'arm64-apple-darwin'
binary-path:     spacewars
relocations:
  - { offsetInCU: 0x26, offset: 0x26, size: 0x8, addend: 0x0, symName: _main, symObjAddr: 0x0, symBinAddr: 0x100002E00, symSize: 0x49C }
  - { offsetInCU: 0x3B, offset: 0x3B, size: 0x8, addend: 0x0, symName: _.str, symObjAddr: 0x5A0, symBinAddr: 0x100042020, symSize: 0x0 }
  - { offsetInCU: 0x6442, offset: 0x6442, size: 0x8, addend: 0x0, symName: _main, symObjAddr: 0x0, symBinAddr: 0x100002E00, symSize: 0x49C }
  - { offsetInCU: 0x3B, offset: 0x6ECA, size: 0x8, addend: 0x0, symName: _.str, symObjAddr: 0x9640, symBinAddr: 0x100042060, symSize: 0x0 }
  - { offsetInCU: 0x6C, offset: 0x6EFB, size: 0x8, addend: 0x0, symName: _.str.1, symObjAddr: 0x9680, symBinAddr: 0x1000420A0, symSize: 0x0 }
  - { offsetInCU: 0x25C3, offset: 0x9452, size: 0x8, addend: 0x0, symName: __ZNSt3__119__debug_db_insert_cB7v160006INS_6vectorI5LaserNS_9allocatorIS2_EEEEEEvPT_, symObjAddr: 0x2064, symBinAddr: 0x100005398, symSize: 0x10 }
  - { offsetInCU: 0x25F4, offset: 0x9483, size: 0x8, addend: 0x0, symName: __ZNSt3__118__debug_db_erase_cB7v160006INS_6vectorI5LaserNS_9allocatorIS2_EEEEEEvPT_, symObjAddr: 0x2750, symBinAddr: 0x100005A84, symSize: 0x10 }
  - { offsetInCU: 0x2625, offset: 0x94B4, size: 0x8, addend: 0x0, symName: __ZNSt3__112__to_addressB7v160006I5LaserEEPT_S3_, symObjAddr: 0x2A48, symBinAddr: 0x100005D7C, symSize: 0x14 }
  - { offsetInCU: 0x265A, offset: 0x94E9, size: 0x8, addend: 0x0, symName: __ZNSt3__119__libcpp_deallocateB7v160006EPvmm, symObjAddr: 0x2BFC, symBinAddr: 0x100005F30, symSize: 0x30 }
  - { offsetInCU: 0x26A2, offset: 0x9531, size: 0x8, addend: 0x0, symName: __ZNSt3__127__do_deallocate_handle_sizeB7v160006IJEEEvPvmDpT_, symObjAddr: 0x2C2C, symBinAddr: 0x100005F60, symSize: 0x28 }
  - { offsetInCU: 0x26E0, offset: 0x956F, size: 0x8, addend: 0x0, symName: __ZNSt3__124__libcpp_operator_deleteB7v160006IJPvEEEvDpT_, symObjAddr: 0x2C54, symBinAddr: 0x100005F88, symSize: 0x24 }
  - { offsetInCU: 0x2715, offset: 0x95A4, size: 0x8, addend: 0x0, symName: __ZNSt3__13maxB7v160006ImEERKT_S3_S3_, symObjAddr: 0x47D8, symBinAddr: 0x100007B0C, symSize: 0x2C }
  - { offsetInCU: 0x2758, offset: 0x95E7, size: 0x8, addend: 0x0, symName: __ZNSt3__13minB7v160006ImEERKT_S3_S3_, symObjAddr: 0x4804, symBinAddr: 0x100007B38, symSize: 0x2C }
  - { offsetInCU: 0x299C, offset: 0x982B, size: 0x8, addend: 0x0, symName: __ZNSt3__13minB7v160006ImNS_6__lessImmEEEERKT_S5_S5_T0_, symObjAddr: 0x4890, symBinAddr: 0x100007BC4, symSize: 0x1E8 }
  - { offsetInCU: 0x2A37, offset: 0x98C6, size: 0x8, addend: 0x0, symName: __ZNSt3__120__throw_length_errorB7v160006EPKc, symObjAddr: 0x4B88, symBinAddr: 0x100007EBC, symSize: 0x68 }
  - { offsetInCU: 0x2A5F, offset: 0x98EE, size: 0x8, addend: 0x0, symName: __ZNSt3__13maxB7v160006ImNS_6__lessImmEEEERKT_S5_S5_T0_, symObjAddr: 0x4CB0, symBinAddr: 0x100007FE4, symSize: 0x1E8 }
  - { offsetInCU: 0x2ABF, offset: 0x994E, size: 0x8, addend: 0x0, symName: __ZNSt3__119__allocate_at_leastB7v160006INS_9allocatorI5LaserEEEENS_19__allocation_resultINS_16allocator_traitsIT_E7pointerEEERS6_m, symObjAddr: 0x53F4, symBinAddr: 0x100008728, symSize: 0x28C }
  - { offsetInCU: 0x2B04, offset: 0x9993, size: 0x8, addend: 0x0, symName: __ZNSt3__117__libcpp_allocateB7v160006Emm, symObjAddr: 0x581C, symBinAddr: 0x100008B50, symSize: 0x28 }
  - { offsetInCU: 0x2B41, offset: 0x99D0, size: 0x8, addend: 0x0, symName: __ZNSt3__121__libcpp_operator_newB7v160006IJmEEEPvDpT_, symObjAddr: 0x5844, symBinAddr: 0x100008B78, symSize: 0x24 }
  - { offsetInCU: 0x2B7A, offset: 0x9A09, size: 0x8, addend: 0x0, symName: __ZNSt3__142__uninitialized_allocator_move_if_noexceptB7v160006INS_9allocatorI5LaserEENS_16reverse_iteratorIPS2_EES6_S2_vEET1_RT_T0_SA_S7_, symObjAddr: 0x5914, symBinAddr: 0x100008C48, symSize: 0x4A8 }
  - { offsetInCU: 0x2C04, offset: 0x9A93, size: 0x8, addend: 0x0, symName: __ZNSt3__14swapB7v160006IP5LaserEENS_9enable_ifIXaasr21is_move_constructibleIT_EE5valuesr18is_move_assignableIS4_EE5valueEvE4typeERS4_S7_, symObjAddr: 0x5E54, symBinAddr: 0x100009188, symSize: 0x134 }
  - { offsetInCU: 0x2C55, offset: 0x9AE4, size: 0x8, addend: 0x0, symName: __ZNSt3__125__debug_db_invalidate_allB7v160006INS_6vectorI5LaserNS_9allocatorIS2_EEEEEEvPT_, symObjAddr: 0x6048, symBinAddr: 0x10000937C, symSize: 0x10 }
  - { offsetInCU: 0x2C86, offset: 0x9B15, size: 0x8, addend: 0x0, symName: __ZNSt3__14moveB7v160006INS_16reverse_iteratorIP5LaserEES4_EET0_T_S6_S5_, symObjAddr: 0x6058, symBinAddr: 0x10000938C, symSize: 0x4B0 }
  - { offsetInCU: 0x2CED, offset: 0x9B7C, size: 0x8, addend: 0x0, symName: __ZNSt3__16__moveB7v160006INS_17_ClassicAlgPolicyENS_16reverse_iteratorIP5LaserEES5_S5_EENS_4pairIT0_T2_EES7_T1_S8_, symObjAddr: 0x6508, symBinAddr: 0x10000983C, symSize: 0x424 }
  - { offsetInCU: 0x2D65, offset: 0x9BF4, size: 0x8, addend: 0x0, symName: __ZNSt3__123__dispatch_copy_or_moveB7v160006INS_17_ClassicAlgPolicyENS_11__move_loopIS1_EENS_14__move_trivialENS_16reverse_iteratorIP5LaserEES8_S8_EENS_4pairIT2_T4_EESA_T3_SB_, symObjAddr: 0x692C, symBinAddr: 0x100009C60, symSize: 0x424 }
  - { offsetInCU: 0x2DEF, offset: 0x9C7E, size: 0x8, addend: 0x0, symName: __ZNSt3__121__unwrap_and_dispatchB7v160006INS_10__overloadINS_11__move_loopINS_17_ClassicAlgPolicyEEENS_14__move_trivialEEENS_16reverse_iteratorIP5LaserEESA_SA_Li0EEENS_4pairIT0_T2_EESC_T1_SD_, symObjAddr: 0x6D50, symBinAddr: 0x10000A084, symSize: 0x880 }
  - { offsetInCU: 0x2E93, offset: 0x9D22, size: 0x8, addend: 0x0, symName: __ZNSt3__114__unwrap_rangeB7v160006INS_16reverse_iteratorIP5LaserEES4_EENS_4pairIT0_S6_EET_S8_, symObjAddr: 0x75D0, symBinAddr: 0x10000A904, symSize: 0x448 }
  - { offsetInCU: 0x3016, offset: 0x9EA5, size: 0x8, addend: 0x0, symName: __ZNSt3__113__unwrap_iterB7v160006INS_16reverse_iteratorIP5LaserEENS_18__unwrap_iter_implIS4_Lb0EEELi0EEEDTclsrT0_8__unwrapclsr3stdE7declvalIT_EEEES8_, symObjAddr: 0x7D5C, symBinAddr: 0x10000B090, symSize: 0x2EC }
  - { offsetInCU: 0x305E, offset: 0x9EED, size: 0x8, addend: 0x0, symName: __ZNSt3__19make_pairB7v160006INS_16reverse_iteratorIP5LaserEES4_EENS_4pairINS_18__unwrap_ref_decayIT_E4typeENS6_IT0_E4typeEEEOS7_OSA_, symObjAddr: 0x8048, symBinAddr: 0x10000B37C, symSize: 0x38 }
  - { offsetInCU: 0x30AD, offset: 0x9F3C, size: 0x8, addend: 0x0, symName: __ZNSt3__114__rewrap_rangeB7v160006INS_16reverse_iteratorIP5LaserEES4_EET_S5_T0_, symObjAddr: 0x8080, symBinAddr: 0x10000B3B4, symSize: 0x3D4 }
  - { offsetInCU: 0x3101, offset: 0x9F90, size: 0x8, addend: 0x0, symName: __ZNSt3__113__rewrap_iterB7v160006INS_16reverse_iteratorIP5LaserEES4_NS_18__unwrap_iter_implIS4_Lb0EEEEET_S7_T0_, symObjAddr: 0x8454, symBinAddr: 0x10000B788, symSize: 0x3E8 }
  - { offsetInCU: 0x315E, offset: 0x9FED, size: 0x8, addend: 0x0, symName: __ZNSt3__1neB7v160006IP5LaserS2_EEbRKNS_16reverse_iteratorIT_EERKNS3_IT0_EE, symObjAddr: 0x883C, symBinAddr: 0x10000BB70, symSize: 0x48 }
  - { offsetInCU: 0x345F, offset: 0xA2EE, size: 0x8, addend: 0x0, symName: __ZSt28__throw_bad_array_new_lengthB7v160006v, symObjAddr: 0x57E4, symBinAddr: 0x100008B18, symSize: 0x38 }
  - { offsetInCU: 0x367D, offset: 0xA50C, size: 0x8, addend: 0x0, symName: __ZNSt3__16vectorI5LaserNS_9allocatorIS1_EEE26__swap_out_circular_bufferERNS_14__split_bufferIS1_RS3_EE, symObjAddr: 0x3F1C, symBinAddr: 0x100007250, symSize: 0x574 }
  - { offsetInCU: 0x551F, offset: 0xC3AE, size: 0x8, addend: 0x0, symName: __ZN9SpaceshipC2Ev, symObjAddr: 0x0, symBinAddr: 0x100003334, symSize: 0x50C }
  - { offsetInCU: 0x554A, offset: 0xC3D9, size: 0x8, addend: 0x0, symName: __ZNSt3__16vectorI5LaserNS_9allocatorIS1_EEEC1B7v160006Ev, symObjAddr: 0x50C, symBinAddr: 0x100003840, symSize: 0x2C }
  - { offsetInCU: 0x5572, offset: 0xC401, size: 0x8, addend: 0x0, symName: __ZNSt3__16vectorI5LaserNS_9allocatorIS1_EEED1B7v160006Ev, symObjAddr: 0x538, symBinAddr: 0x10000386C, symSize: 0x2C }
  - { offsetInCU: 0x559A, offset: 0xC429, size: 0x8, addend: 0x0, symName: __ZN9SpaceshipC1Ev, symObjAddr: 0x564, symBinAddr: 0x100003898, symSize: 0x2C }
  - { offsetInCU: 0x55C4, offset: 0xC453, size: 0x8, addend: 0x0, symName: __ZN9SpaceshipD2Ev, symObjAddr: 0x590, symBinAddr: 0x1000038C4, symSize: 0x210 }
  - { offsetInCU: 0x55EF, offset: 0xC47E, size: 0x8, addend: 0x0, symName: __ZN9SpaceshipD1Ev, symObjAddr: 0x7AC, symBinAddr: 0x100003AE0, symSize: 0x2C }
  - { offsetInCU: 0x5619, offset: 0xC4A8, size: 0x8, addend: 0x0, symName: __ZN9Spaceship4DrawEv, symObjAddr: 0x7D8, symBinAddr: 0x100003B0C, symSize: 0x4F8 }
  - { offsetInCU: 0x5640, offset: 0xC4CF, size: 0x8, addend: 0x0, symName: __ZN9Spaceship8moveLeftEv, symObjAddr: 0xCD0, symBinAddr: 0x100004004, symSize: 0x178 }
  - { offsetInCU: 0x5666, offset: 0xC4F5, size: 0x8, addend: 0x0, symName: __ZN9Spaceship9moveRightEv, symObjAddr: 0xE48, symBinAddr: 0x10000417C, symSize: 0x270 }
  - { offsetInCU: 0x568C, offset: 0xC51B, size: 0x8, addend: 0x0, symName: __ZN9Spaceship5ShootEv, symObjAddr: 0x10B8, symBinAddr: 0x1000043EC, symSize: 0x5B8 }
  - { offsetInCU: 0x56B3, offset: 0xC542, size: 0x8, addend: 0x0, symName: __ZNSt3__16vectorI5LaserNS_9allocatorIS1_EEE9push_backB7v160006EOS1_, symObjAddr: 0x1670, symBinAddr: 0x1000049A4, symSize: 0xE0 }
  - { offsetInCU: 0x56E8, offset: 0xC577, size: 0x8, addend: 0x0, symName: __ZN9Spaceship7getRectEv, symObjAddr: 0x1750, symBinAddr: 0x100004A84, symSize: 0x5E4 }
  - { offsetInCU: 0x570F, offset: 0xC59E, size: 0x8, addend: 0x0, symName: __ZNSt3__16vectorI5LaserNS_9allocatorIS1_EEEC2B7v160006Ev, symObjAddr: 0x1D34, symBinAddr: 0x100005068, symSize: 0x2F4 }
  - { offsetInCU: 0x5742, offset: 0xC5D1, size: 0x8, addend: 0x0, symName: __ZNSt3__117__compressed_pairIP5LaserNS_9allocatorIS1_EEEC1B7v160006IDnNS_18__default_init_tagEEEOT_OT0_, symObjAddr: 0x2028, symBinAddr: 0x10000535C, symSize: 0x3C }
  - { offsetInCU: 0x5798, offset: 0xC627, size: 0x8, addend: 0x0, symName: __ZNSt3__117__compressed_pairIP5LaserNS_9allocatorIS1_EEEC2B7v160006IDnNS_18__default_init_tagEEEOT_OT0_, symObjAddr: 0x2074, symBinAddr: 0x1000053A8, symSize: 0x40 }
  - { offsetInCU: 0x57EE, offset: 0xC67D, size: 0x8, addend: 0x0, symName: __ZNSt3__122__compressed_pair_elemIP5LaserLi0ELb0EEC2B7v160006IDnvEEOT_, symObjAddr: 0x20B4, symBinAddr: 0x1000053E8, symSize: 0x64 }
  - { offsetInCU: 0x582E, offset: 0xC6BD, size: 0x8, addend: 0x0, symName: __ZNSt3__122__compressed_pair_elemINS_9allocatorI5LaserEELi1ELb1EEC2B7v160006ENS_18__default_init_tagE, symObjAddr: 0x2118, symBinAddr: 0x10000544C, symSize: 0x2C }
  - { offsetInCU: 0x5860, offset: 0xC6EF, size: 0x8, addend: 0x0, symName: __ZNSt3__19allocatorI5LaserEC2B7v160006Ev, symObjAddr: 0x2144, symBinAddr: 0x100005478, symSize: 0x2C }
  - { offsetInCU: 0x5888, offset: 0xC717, size: 0x8, addend: 0x0, symName: __ZNSt3__116__non_trivial_ifILb1ENS_9allocatorI5LaserEEEC2B7v160006Ev, symObjAddr: 0x2170, symBinAddr: 0x1000054A4, symSize: 0x14 }
  - { offsetInCU: 0x58B0, offset: 0xC73F, size: 0x8, addend: 0x0, symName: __ZNSt3__16vectorI5LaserNS_9allocatorIS1_EEED2B7v160006Ev, symObjAddr: 0x2184, symBinAddr: 0x1000054B8, symSize: 0x1F8 }
  - { offsetInCU: 0x58D9, offset: 0xC768, size: 0x8, addend: 0x0, symName: __ZNSt3__16vectorI5LaserNS_9allocatorIS1_EEE16__destroy_vectorC1ERS4_, symObjAddr: 0x237C, symBinAddr: 0x1000056B0, symSize: 0x34 }
  - { offsetInCU: 0x5910, offset: 0xC79F, size: 0x8, addend: 0x0, symName: __ZNSt3__16vectorI5LaserNS_9allocatorIS1_EEE16__destroy_vectorclB7v160006Ev, symObjAddr: 0x23B0, symBinAddr: 0x1000056E4, symSize: 0x264 }
  - { offsetInCU: 0x5934, offset: 0xC7C3, size: 0x8, addend: 0x0, symName: __ZNSt3__16vectorI5LaserNS_9allocatorIS1_EEE16__destroy_vectorC2ERS4_, symObjAddr: 0x2614, symBinAddr: 0x100005948, symSize: 0x70 }
  - { offsetInCU: 0x596B, offset: 0xC7FA, size: 0x8, addend: 0x0, symName: __ZNKSt3__16vectorI5LaserNS_9allocatorIS1_EEE17__annotate_deleteB7v160006Ev, symObjAddr: 0x2684, symBinAddr: 0x1000059B8, symSize: 0xCC }
  - { offsetInCU: 0x598F, offset: 0xC81E, size: 0x8, addend: 0x0, symName: __ZNSt3__16vectorI5LaserNS_9allocatorIS1_EEE7__clearB7v160006Ev, symObjAddr: 0x2760, symBinAddr: 0x100005A94, symSize: 0x64 }
  - { offsetInCU: 0x59B3, offset: 0xC842, size: 0x8, addend: 0x0, symName: __ZNSt3__116allocator_traitsINS_9allocatorI5LaserEEE10deallocateB7v160006ERS3_PS2_m, symObjAddr: 0x27C4, symBinAddr: 0x100005AF8, symSize: 0x34 }
  - { offsetInCU: 0x59F4, offset: 0xC883, size: 0x8, addend: 0x0, symName: __ZNSt3__16vectorI5LaserNS_9allocatorIS1_EEE7__allocB7v160006Ev, symObjAddr: 0x27F8, symBinAddr: 0x100005B2C, symSize: 0x28 }
  - { offsetInCU: 0x5A18, offset: 0xC8A7, size: 0x8, addend: 0x0, symName: __ZNKSt3__16vectorI5LaserNS_9allocatorIS1_EEE8capacityB7v160006Ev, symObjAddr: 0x2820, symBinAddr: 0x100005B54, symSize: 0xBC }
  - { offsetInCU: 0x5A3C, offset: 0xC8CB, size: 0x8, addend: 0x0, symName: __ZNKSt3__16vectorI5LaserNS_9allocatorIS1_EEE31__annotate_contiguous_containerEPKvS6_S6_S6_, symObjAddr: 0x28DC, symBinAddr: 0x100005C10, symSize: 0x58 }
  - { offsetInCU: 0x5A9C, offset: 0xC92B, size: 0x8, addend: 0x0, symName: __ZNKSt3__16vectorI5LaserNS_9allocatorIS1_EEE4dataB7v160006Ev, symObjAddr: 0x2934, symBinAddr: 0x100005C68, symSize: 0x64 }
  - { offsetInCU: 0x5AC0, offset: 0xC94F, size: 0x8, addend: 0x0, symName: __ZNKSt3__16vectorI5LaserNS_9allocatorIS1_EEE4sizeB7v160006Ev, symObjAddr: 0x2998, symBinAddr: 0x100005CCC, symSize: 0xB0 }
  - { offsetInCU: 0x5AE4, offset: 0xC973, size: 0x8, addend: 0x0, symName: __ZNSt3__16vectorI5LaserNS_9allocatorIS1_EEE22__base_destruct_at_endB7v160006EPS1_, symObjAddr: 0x2A5C, symBinAddr: 0x100005D90, symSize: 0x114 }
  - { offsetInCU: 0x5B26, offset: 0xC9B5, size: 0x8, addend: 0x0, symName: __ZNSt3__116allocator_traitsINS_9allocatorI5LaserEEE7destroyB7v160006IS2_vEEvRS3_PT_, symObjAddr: 0x2B70, symBinAddr: 0x100005EA4, symSize: 0x2C }
  - { offsetInCU: 0x5B62, offset: 0xC9F1, size: 0x8, addend: 0x0, symName: __ZNSt3__19allocatorI5LaserE7destroyB7v160006EPS1_, symObjAddr: 0x2B9C, symBinAddr: 0x100005ED0, symSize: 0x14 }
  - { offsetInCU: 0x5B94, offset: 0xCA23, size: 0x8, addend: 0x0, symName: __ZNSt3__19allocatorI5LaserE10deallocateB7v160006EPS1_m, symObjAddr: 0x2BB0, symBinAddr: 0x100005EE4, symSize: 0x4C }
  - { offsetInCU: 0x5BD4, offset: 0xCA63, size: 0x8, addend: 0x0, symName: __ZNSt3__117__compressed_pairIP5LaserNS_9allocatorIS1_EEE6secondB7v160006Ev, symObjAddr: 0x2C78, symBinAddr: 0x100005FAC, symSize: 0x24 }
  - { offsetInCU: 0x5BF8, offset: 0xCA87, size: 0x8, addend: 0x0, symName: __ZNSt3__122__compressed_pair_elemINS_9allocatorI5LaserEELi1ELb1EE5__getB7v160006Ev, symObjAddr: 0x2C9C, symBinAddr: 0x100005FD0, symSize: 0x14 }
  - { offsetInCU: 0x5C1C, offset: 0xCAAB, size: 0x8, addend: 0x0, symName: __ZNKSt3__16vectorI5LaserNS_9allocatorIS1_EEE9__end_capB7v160006Ev, symObjAddr: 0x2CB0, symBinAddr: 0x100005FE4, symSize: 0x28 }
  - { offsetInCU: 0x5C40, offset: 0xCACF, size: 0x8, addend: 0x0, symName: __ZNKSt3__117__compressed_pairIP5LaserNS_9allocatorIS1_EEE5firstB7v160006Ev, symObjAddr: 0x2CD8, symBinAddr: 0x10000600C, symSize: 0x24 }
  - { offsetInCU: 0x5C64, offset: 0xCAF3, size: 0x8, addend: 0x0, symName: __ZNKSt3__122__compressed_pair_elemIP5LaserLi0ELb0EE5__getB7v160006Ev, symObjAddr: 0x2CFC, symBinAddr: 0x100006030, symSize: 0x14 }
  - { offsetInCU: 0x5C88, offset: 0xCB17, size: 0x8, addend: 0x0, symName: __ZNSt3__16vectorI5LaserNS_9allocatorIS1_EEE9__end_capB7v160006Ev, symObjAddr: 0x2D10, symBinAddr: 0x100006044, symSize: 0x28 }
  - { offsetInCU: 0x5CB1, offset: 0xCB40, size: 0x8, addend: 0x0, symName: __ZNSt3__16vectorI5LaserNS_9allocatorIS1_EEE22__construct_one_at_endB7v160006IJS1_EEEvDpOT_, symObjAddr: 0x2D38, symBinAddr: 0x10000606C, symSize: 0x36C }
  - { offsetInCU: 0x5D04, offset: 0xCB93, size: 0x8, addend: 0x0, symName: __ZNSt3__16vectorI5LaserNS_9allocatorIS1_EEE21__push_back_slow_pathIS1_EEvOT_, symObjAddr: 0x30A4, symBinAddr: 0x1000063D8, symSize: 0x3C0 }
  - { offsetInCU: 0x5D67, offset: 0xCBF6, size: 0x8, addend: 0x0, symName: __ZNSt3__117__compressed_pairIP5LaserNS_9allocatorIS1_EEE5firstB7v160006Ev, symObjAddr: 0x3464, symBinAddr: 0x100006798, symSize: 0x24 }
  - { offsetInCU: 0x5D8B, offset: 0xCC1A, size: 0x8, addend: 0x0, symName: __ZNSt3__122__compressed_pair_elemIP5LaserLi0ELb0EE5__getB7v160006Ev, symObjAddr: 0x3488, symBinAddr: 0x1000067BC, symSize: 0x14 }
  - { offsetInCU: 0x5DC8, offset: 0xCC57, size: 0x8, addend: 0x0, symName: __ZNSt3__16vectorI5LaserNS_9allocatorIS1_EEE21_ConstructTransactionC1B7v160006ERS4_m, symObjAddr: 0x349C, symBinAddr: 0x1000067D0, symSize: 0x3C }
  - { offsetInCU: 0x5E0E, offset: 0xCC9D, size: 0x8, addend: 0x0, symName: __ZNSt3__116allocator_traitsINS_9allocatorI5LaserEEE9constructB7v160006IS2_JS2_EvEEvRS3_PT_DpOT0_, symObjAddr: 0x34D8, symBinAddr: 0x10000680C, symSize: 0x34 }
  - { offsetInCU: 0x5E64, offset: 0xCCF3, size: 0x8, addend: 0x0, symName: __ZNSt3__16vectorI5LaserNS_9allocatorIS1_EEE21_ConstructTransactionD1B7v160006Ev, symObjAddr: 0x350C, symBinAddr: 0x100006840, symSize: 0x2C }
  - { offsetInCU: 0x5E8C, offset: 0xCD1B, size: 0x8, addend: 0x0, symName: __ZNSt3__16vectorI5LaserNS_9allocatorIS1_EEE21_ConstructTransactionC2B7v160006ERS4_m, symObjAddr: 0x3538, symBinAddr: 0x10000686C, symSize: 0x1D0 }
  - { offsetInCU: 0x5ED2, offset: 0xCD61, size: 0x8, addend: 0x0, symName: __ZNKSt3__16vectorI5LaserNS_9allocatorIS1_EEE19__annotate_increaseB7v160006Em, symObjAddr: 0x3708, symBinAddr: 0x100006A3C, symSize: 0xD8 }
  - { offsetInCU: 0x5F05, offset: 0xCD94, size: 0x8, addend: 0x0, symName: __ZNSt3__19allocatorI5LaserE9constructB7v160006IS1_JS1_EEEvPT_DpOT0_, symObjAddr: 0x37E0, symBinAddr: 0x100006B14, symSize: 0x34 }
  - { offsetInCU: 0x5F59, offset: 0xCDE8, size: 0x8, addend: 0x0, symName: __ZNSt3__16vectorI5LaserNS_9allocatorIS1_EEE21_ConstructTransactionD2B7v160006Ev, symObjAddr: 0x3814, symBinAddr: 0x100006B48, symSize: 0x278 }
  - { offsetInCU: 0x5F81, offset: 0xCE10, size: 0x8, addend: 0x0, symName: __ZNKSt3__16vectorI5LaserNS_9allocatorIS1_EEE17__annotate_shrinkB7v160006Em, symObjAddr: 0x3A8C, symBinAddr: 0x100006DC0, symSize: 0xC8 }
  - { offsetInCU: 0x5FB4, offset: 0xCE43, size: 0x8, addend: 0x0, symName: __ZNKSt3__16vectorI5LaserNS_9allocatorIS1_EEE11__recommendB7v160006Em, symObjAddr: 0x3B54, symBinAddr: 0x100006E88, symSize: 0x384 }
  - { offsetInCU: 0x600E, offset: 0xCE9D, size: 0x8, addend: 0x0, symName: __ZNSt3__114__split_bufferI5LaserRNS_9allocatorIS1_EEEC1EmmS4_, symObjAddr: 0x3ED8, symBinAddr: 0x10000720C, symSize: 0x44 }
  - { offsetInCU: 0x6062, offset: 0xCEF1, size: 0x8, addend: 0x0, symName: __ZNSt3__114__split_bufferI5LaserRNS_9allocatorIS1_EEED1Ev, symObjAddr: 0x4490, symBinAddr: 0x1000077C4, symSize: 0x2C }
  - { offsetInCU: 0x608C, offset: 0xCF1B, size: 0x8, addend: 0x0, symName: __ZNKSt3__16vectorI5LaserNS_9allocatorIS1_EEE8max_sizeEv, symObjAddr: 0x44BC, symBinAddr: 0x1000077F0, symSize: 0x2FC }
  - { offsetInCU: 0x60B3, offset: 0xCF42, size: 0x8, addend: 0x0, symName: __ZNKSt3__16vectorI5LaserNS_9allocatorIS1_EEE20__throw_length_errorB7v160006Ev, symObjAddr: 0x47B8, symBinAddr: 0x100007AEC, symSize: 0x20 }
  - { offsetInCU: 0x60E1, offset: 0xCF70, size: 0x8, addend: 0x0, symName: __ZNSt3__116allocator_traitsINS_9allocatorI5LaserEEE8max_sizeB7v160006IS3_vEEmRKS3_, symObjAddr: 0x4830, symBinAddr: 0x100007B64, symSize: 0x24 }
  - { offsetInCU: 0x610E, offset: 0xCF9D, size: 0x8, addend: 0x0, symName: __ZNKSt3__16vectorI5LaserNS_9allocatorIS1_EEE7__allocB7v160006Ev, symObjAddr: 0x4854, symBinAddr: 0x100007B88, symSize: 0x28 }
  - { offsetInCU: 0x6132, offset: 0xCFC1, size: 0x8, addend: 0x0, symName: __ZNSt3__114numeric_limitsIlE3maxB7v160006Ev, symObjAddr: 0x487C, symBinAddr: 0x100007BB0, symSize: 0x14 }
  - { offsetInCU: 0x6159, offset: 0xCFE8, size: 0x8, addend: 0x0, symName: __ZNKSt3__16__lessImmEclB7v160006ERKmS3_, symObjAddr: 0x4A78, symBinAddr: 0x100007DAC, symSize: 0xBC }
  - { offsetInCU: 0x6199, offset: 0xD028, size: 0x8, addend: 0x0, symName: __ZNKSt3__19allocatorI5LaserE8max_sizeB7v160006Ev, symObjAddr: 0x4B34, symBinAddr: 0x100007E68, symSize: 0x14 }
  - { offsetInCU: 0x61BD, offset: 0xD04C, size: 0x8, addend: 0x0, symName: __ZNKSt3__117__compressed_pairIP5LaserNS_9allocatorIS1_EEE6secondB7v160006Ev, symObjAddr: 0x4B48, symBinAddr: 0x100007E7C, symSize: 0x24 }
  - { offsetInCU: 0x61E1, offset: 0xD070, size: 0x8, addend: 0x0, symName: __ZNKSt3__122__compressed_pair_elemINS_9allocatorI5LaserEELi1ELb1EE5__getB7v160006Ev, symObjAddr: 0x4B6C, symBinAddr: 0x100007EA0, symSize: 0x14 }
  - { offsetInCU: 0x6205, offset: 0xD094, size: 0x8, addend: 0x0, symName: __ZNSt3__123__libcpp_numeric_limitsIlLb1EE3maxB7v160006Ev, symObjAddr: 0x4B80, symBinAddr: 0x100007EB4, symSize: 0x8 }
  - { offsetInCU: 0x6218, offset: 0xD0A7, size: 0x8, addend: 0x0, symName: __ZNSt12length_errorC1B7v160006EPKc, symObjAddr: 0x4BF0, symBinAddr: 0x100007F24, symSize: 0x34 }
  - { offsetInCU: 0x624E, offset: 0xD0DD, size: 0x8, addend: 0x0, symName: __ZNSt12length_errorC2B7v160006EPKc, symObjAddr: 0x4C24, symBinAddr: 0x100007F58, symSize: 0x8C }
  - { offsetInCU: 0x6284, offset: 0xD113, size: 0x8, addend: 0x0, symName: __ZNSt3__114__split_bufferI5LaserRNS_9allocatorIS1_EEEC2EmmS4_, symObjAddr: 0x4E98, symBinAddr: 0x1000081CC, symSize: 0x520 }
  - { offsetInCU: 0x62FD, offset: 0xD18C, size: 0x8, addend: 0x0, symName: __ZNSt3__117__compressed_pairIP5LaserRNS_9allocatorIS1_EEEC1B7v160006IDnS5_EEOT_OT0_, symObjAddr: 0x53B8, symBinAddr: 0x1000086EC, symSize: 0x3C }
  - { offsetInCU: 0x6353, offset: 0xD1E2, size: 0x8, addend: 0x0, symName: __ZNSt3__114__split_bufferI5LaserRNS_9allocatorIS1_EEE7__allocB7v160006Ev, symObjAddr: 0x5680, symBinAddr: 0x1000089B4, symSize: 0x28 }
  - { offsetInCU: 0x6377, offset: 0xD206, size: 0x8, addend: 0x0, symName: __ZNSt3__114__split_bufferI5LaserRNS_9allocatorIS1_EEE9__end_capB7v160006Ev, symObjAddr: 0x56A8, symBinAddr: 0x1000089DC, symSize: 0x28 }
  - { offsetInCU: 0x639B, offset: 0xD22A, size: 0x8, addend: 0x0, symName: __ZNSt3__117__compressed_pairIP5LaserRNS_9allocatorIS1_EEEC2B7v160006IDnS5_EEOT_OT0_, symObjAddr: 0x56D0, symBinAddr: 0x100008A04, symSize: 0x48 }
  - { offsetInCU: 0x63F1, offset: 0xD280, size: 0x8, addend: 0x0, symName: __ZNSt3__122__compressed_pair_elemIRNS_9allocatorI5LaserEELi1ELb0EEC2B7v160006IS4_vEEOT_, symObjAddr: 0x5718, symBinAddr: 0x100008A4C, symSize: 0x70 }
  - { offsetInCU: 0x6431, offset: 0xD2C0, size: 0x8, addend: 0x0, symName: __ZNSt3__19allocatorI5LaserE8allocateB7v160006Em, symObjAddr: 0x5788, symBinAddr: 0x100008ABC, symSize: 0x5C }
  - { offsetInCU: 0x6463, offset: 0xD2F2, size: 0x8, addend: 0x0, symName: __ZNSt3__117__compressed_pairIP5LaserRNS_9allocatorIS1_EEE6secondB7v160006Ev, symObjAddr: 0x5868, symBinAddr: 0x100008B9C, symSize: 0x28 }
  - { offsetInCU: 0x6487, offset: 0xD316, size: 0x8, addend: 0x0, symName: __ZNSt3__122__compressed_pair_elemIRNS_9allocatorI5LaserEELi1ELb0EE5__getB7v160006Ev, symObjAddr: 0x5890, symBinAddr: 0x100008BC4, symSize: 0x60 }
  - { offsetInCU: 0x64AB, offset: 0xD33A, size: 0x8, addend: 0x0, symName: __ZNSt3__117__compressed_pairIP5LaserRNS_9allocatorIS1_EEE5firstB7v160006Ev, symObjAddr: 0x58F0, symBinAddr: 0x100008C24, symSize: 0x24 }
  - { offsetInCU: 0x64CF, offset: 0xD35E, size: 0x8, addend: 0x0, symName: __ZNSt3__116reverse_iteratorIP5LaserEC1B7v160006ES2_, symObjAddr: 0x5DBC, symBinAddr: 0x1000090F0, symSize: 0x34 }
  - { offsetInCU: 0x6505, offset: 0xD394, size: 0x8, addend: 0x0, symName: __ZNKSt3__116reverse_iteratorIP5LaserE4baseB7v160006Ev, symObjAddr: 0x5DF0, symBinAddr: 0x100009124, symSize: 0x64 }
  - { offsetInCU: 0x6529, offset: 0xD3B8, size: 0x8, addend: 0x0, symName: __ZNKSt3__16vectorI5LaserNS_9allocatorIS1_EEE14__annotate_newB7v160006Em, symObjAddr: 0x5F88, symBinAddr: 0x1000092BC, symSize: 0xC0 }
  - { offsetInCU: 0x657F, offset: 0xD40E, size: 0x8, addend: 0x0, symName: __ZNKSt3__111__move_loopINS_17_ClassicAlgPolicyEEclB7v160006INS_16reverse_iteratorIP5LaserEES7_S7_EENS_4pairIT_T1_EES9_T0_SA_, symObjAddr: 0x7A18, symBinAddr: 0x10000AD4C, symSize: 0x344 }
  - { offsetInCU: 0x65F5, offset: 0xD484, size: 0x8, addend: 0x0, symName: __ZNSt3__18_IterOpsINS_17_ClassicAlgPolicyEE11__iter_moveB7v160006IRNS_16reverse_iteratorIP5LaserEEEENS_9enable_ifIXsr12is_referenceIDTdeclsr3stdE7declvalIRT_EEEEE5valueEDTclsr3stdE4movedeclsr3stdE7declvalISB_EEEEE4typeEOSA_, symObjAddr: 0x8884, symBinAddr: 0x10000BBB8, symSize: 0x28 }
  - { offsetInCU: 0x6620, offset: 0xD4AF, size: 0x8, addend: 0x0, symName: __ZNKSt3__116reverse_iteratorIP5LaserEdeB7v160006Ev, symObjAddr: 0x88AC, symBinAddr: 0x10000BBE0, symSize: 0x74 }
  - { offsetInCU: 0x6652, offset: 0xD4E1, size: 0x8, addend: 0x0, symName: __ZNSt3__116reverse_iteratorIP5LaserEppB7v160006Ev, symObjAddr: 0x8920, symBinAddr: 0x10000BC54, symSize: 0x6C }
  - { offsetInCU: 0x6676, offset: 0xD505, size: 0x8, addend: 0x0, symName: __ZNSt3__18_IterOpsINS_17_ClassicAlgPolicyEE25__validate_iter_referenceB7v160006IRNS_16reverse_iteratorIP5LaserEEEEvv, symObjAddr: 0x898C, symBinAddr: 0x10000BCC0, symSize: 0x4 }
  - { offsetInCU: 0x6693, offset: 0xD522, size: 0x8, addend: 0x0, symName: __ZNSt3__118__unwrap_iter_implINS_16reverse_iteratorIP5LaserEELb0EE8__unwrapB7v160006ES4_, symObjAddr: 0x8990, symBinAddr: 0x10000BCC4, symSize: 0x274 }
  - { offsetInCU: 0x66BE, offset: 0xD54D, size: 0x8, addend: 0x0, symName: __ZNSt3__14pairINS_16reverse_iteratorIP5LaserEES4_EC1B7v160006IS4_S4_LPv0EEEOT_OT0_, symObjAddr: 0x8C04, symBinAddr: 0x10000BF38, symSize: 0x3C }
  - { offsetInCU: 0x671A, offset: 0xD5A9, size: 0x8, addend: 0x0, symName: __ZNSt3__14pairINS_16reverse_iteratorIP5LaserEES4_EC2B7v160006IS4_S4_LPv0EEEOT_OT0_, symObjAddr: 0x8C40, symBinAddr: 0x10000BF74, symSize: 0x54 }
  - { offsetInCU: 0x6776, offset: 0xD605, size: 0x8, addend: 0x0, symName: __ZNSt3__118__unwrap_iter_implINS_16reverse_iteratorIP5LaserEELb0EE8__rewrapB7v160006ES4_S4_, symObjAddr: 0x8C94, symBinAddr: 0x10000BFC8, symSize: 0x2E0 }
  - { offsetInCU: 0x67AA, offset: 0xD639, size: 0x8, addend: 0x0, symName: __ZNSt3__116reverse_iteratorIP5LaserEC2B7v160006ES2_, symObjAddr: 0x8F74, symBinAddr: 0x10000C2A8, symSize: 0xB8 }
  - { offsetInCU: 0x67E0, offset: 0xD66F, size: 0x8, addend: 0x0, symName: __ZNSt3__114__split_bufferI5LaserRNS_9allocatorIS1_EEED2Ev, symObjAddr: 0x902C, symBinAddr: 0x10000C360, symSize: 0x104 }
  - { offsetInCU: 0x680A, offset: 0xD699, size: 0x8, addend: 0x0, symName: __ZNSt3__114__split_bufferI5LaserRNS_9allocatorIS1_EEE5clearB7v160006Ev, symObjAddr: 0x9130, symBinAddr: 0x10000C464, symSize: 0x68 }
  - { offsetInCU: 0x682E, offset: 0xD6BD, size: 0x8, addend: 0x0, symName: __ZNKSt3__114__split_bufferI5LaserRNS_9allocatorIS1_EEE8capacityB7v160006Ev, symObjAddr: 0x9198, symBinAddr: 0x10000C4CC, symSize: 0xBC }
  - { offsetInCU: 0x6852, offset: 0xD6E1, size: 0x8, addend: 0x0, symName: __ZNSt3__114__split_bufferI5LaserRNS_9allocatorIS1_EEE17__destruct_at_endB7v160006EPS1_, symObjAddr: 0x9254, symBinAddr: 0x10000C588, symSize: 0x2C }
  - { offsetInCU: 0x6884, offset: 0xD713, size: 0x8, addend: 0x0, symName: __ZNSt3__114__split_bufferI5LaserRNS_9allocatorIS1_EEE17__destruct_at_endB7v160006EPS1_NS_17integral_constantIbLb0EEE, symObjAddr: 0x9280, symBinAddr: 0x10000C5B4, symSize: 0x10C }
  - { offsetInCU: 0x68C2, offset: 0xD751, size: 0x8, addend: 0x0, symName: __ZNKSt3__114__split_bufferI5LaserRNS_9allocatorIS1_EEE9__end_capB7v160006Ev, symObjAddr: 0x938C, symBinAddr: 0x10000C6C0, symSize: 0x28 }
  - { offsetInCU: 0x68E6, offset: 0xD775, size: 0x8, addend: 0x0, symName: __ZNKSt3__117__compressed_pairIP5LaserRNS_9allocatorIS1_EEE5firstB7v160006Ev, symObjAddr: 0x93B4, symBinAddr: 0x10000C6E8, symSize: 0x24 }
  - { offsetInCU: 0x3C, offset: 0xD843, size: 0x8, addend: 0x0, symName: _.str, symObjAddr: 0x234A0, symBinAddr: 0x1000420C0, symSize: 0x0 }
  - { offsetInCU: 0x846D, offset: 0x15C74, size: 0x8, addend: 0x0, symName: __ZNSt3__1neB7v160006IP5LaserEEbRKNS_11__wrap_iterIT_EES7_, symObjAddr: 0x1EB8, symBinAddr: 0x10000E5F8, symSize: 0x34 }
  - { offsetInCU: 0x84B0, offset: 0x15CB7, size: 0x8, addend: 0x0, symName: __ZNSt3__1neB7v160006IP8ObstacleEEbRKNS_11__wrap_iterIT_EES7_, symObjAddr: 0x579C, symBinAddr: 0x100011EDC, symSize: 0x34 }
  - { offsetInCU: 0x84F3, offset: 0x15CFA, size: 0x8, addend: 0x0, symName: __ZNSt3__1neB7v160006IP5AlienEEbRKNS_11__wrap_iterIT_EES7_, symObjAddr: 0x5D6C, symBinAddr: 0x1000124AC, symSize: 0x34 }
  - { offsetInCU: 0x8536, offset: 0x15D3D, size: 0x8, addend: 0x0, symName: __ZNSt3__1neB7v160006IP5BlockEEbRKNS_11__wrap_iterIT_EES7_, symObjAddr: 0x7378, symBinAddr: 0x1000139D8, symSize: 0x34 }
  - { offsetInCU: 0x8579, offset: 0x15D80, size: 0x8, addend: 0x0, symName: __ZNSt3__1eqB7v160006IP5LaserEEbRKNS_11__wrap_iterIT_EES7_, symObjAddr: 0x7B20, symBinAddr: 0x100014180, symSize: 0x48 }
  - { offsetInCU: 0x85BC, offset: 0x15DC3, size: 0x8, addend: 0x0, symName: __ZNSt3__1eqB7v160006IP8ObstacleEEbRKNS_11__wrap_iterIT_EES7_, symObjAddr: 0x7BC8, symBinAddr: 0x100014228, symSize: 0x48 }
  - { offsetInCU: 0x85FF, offset: 0x15E06, size: 0x8, addend: 0x0, symName: __ZNSt3__1eqB7v160006IP5AlienEEbRKNS_11__wrap_iterIT_EES7_, symObjAddr: 0x7C70, symBinAddr: 0x1000142D0, symSize: 0x48 }
  - { offsetInCU: 0x8642, offset: 0x15E49, size: 0x8, addend: 0x0, symName: __ZNSt3__118__debug_db_erase_cB7v160006INS_6vectorI5BlockNS_9allocatorIS2_EEEEEEvPT_, symObjAddr: 0x8340, symBinAddr: 0x1000149A0, symSize: 0x10 }
  - { offsetInCU: 0x8673, offset: 0x15E7A, size: 0x8, addend: 0x0, symName: __ZNSt3__112__to_addressB7v160006I5BlockEEPT_S3_, symObjAddr: 0x8638, symBinAddr: 0x100014C98, symSize: 0x14 }
  - { offsetInCU: 0x86A8, offset: 0x15EAF, size: 0x8, addend: 0x0, symName: __ZNSt3__1eqB7v160006IP5BlockEEbRKNS_11__wrap_iterIT_EES7_, symObjAddr: 0x8914, symBinAddr: 0x100014EF8, symSize: 0x48 }
  - { offsetInCU: 0x86EB, offset: 0x15EF2, size: 0x8, addend: 0x0, symName: __ZNSt3__119__debug_db_insert_cB7v160006INS_6vectorI8ObstacleNS_9allocatorIS2_EEEEEEvPT_, symObjAddr: 0x8CEC, symBinAddr: 0x1000152D0, symSize: 0x10 }
  - { offsetInCU: 0x871C, offset: 0x15F23, size: 0x8, addend: 0x0, symName: __ZNSt3__119__debug_db_insert_cB7v160006INS_6vectorI5AlienNS_9allocatorIS2_EEEEEEvPT_, symObjAddr: 0x913C, symBinAddr: 0x100015720, symSize: 0x10 }
  - { offsetInCU: 0x874D, offset: 0x15F54, size: 0x8, addend: 0x0, symName: __ZNSt3__118__debug_db_erase_cB7v160006INS_6vectorI8ObstacleNS_9allocatorIS2_EEEEEEvPT_, symObjAddr: 0x9C78, symBinAddr: 0x100015E0C, symSize: 0x10 }
  - { offsetInCU: 0x877E, offset: 0x15F85, size: 0x8, addend: 0x0, symName: __ZNSt3__112__to_addressB7v160006I8ObstacleEEPT_S3_, symObjAddr: 0x9F70, symBinAddr: 0x100016104, symSize: 0x14 }
  - { offsetInCU: 0x87B3, offset: 0x15FBA, size: 0x8, addend: 0x0, symName: __ZNSt3__118__debug_db_erase_cB7v160006INS_6vectorI5AlienNS_9allocatorIS2_EEEEEEvPT_, symObjAddr: 0xA79C, symBinAddr: 0x100016930, symSize: 0x10 }
  - { offsetInCU: 0x87E4, offset: 0x15FEB, size: 0x8, addend: 0x0, symName: __ZNSt3__112__to_addressB7v160006I5AlienEEPT_S3_, symObjAddr: 0xA9E4, symBinAddr: 0x100016B78, symSize: 0x14 }
  - { offsetInCU: 0x8819, offset: 0x16020, size: 0x8, addend: 0x0, symName: __ZNSt3__1miB7v160006IPK5LaserS3_EEDTmicldtfp_4baseEcldtfp0_4baseEERKNS_11__wrap_iterIT_EERKNS5_IT0_EE, symObjAddr: 0xBF64, symBinAddr: 0x1000175E8, symSize: 0x48 }
  - { offsetInCU: 0x8865, offset: 0x1606C, size: 0x8, addend: 0x0, symName: __ZNSt3__14moveB7v160006IP5LaserS2_EET0_T_S4_S3_, symObjAddr: 0xC24C, symBinAddr: 0x1000178D0, symSize: 0x26C }
  - { offsetInCU: 0x88C2, offset: 0x160C9, size: 0x8, addend: 0x0, symName: __ZNSt3__16__moveB7v160006INS_17_ClassicAlgPolicyEP5LaserS3_S3_EENS_4pairIT0_T2_EES5_T1_S6_, symObjAddr: 0xCB0C, symBinAddr: 0x1000180C8, symSize: 0x22C }
  - { offsetInCU: 0x8931, offset: 0x16138, size: 0x8, addend: 0x0, symName: __ZNSt3__123__dispatch_copy_or_moveB7v160006INS_17_ClassicAlgPolicyENS_11__move_loopIS1_EENS_14__move_trivialEP5LaserS6_S6_EENS_4pairIT2_T4_EES8_T3_S9_, symObjAddr: 0xCD38, symBinAddr: 0x1000182F4, symSize: 0x22C }
  - { offsetInCU: 0x89B2, offset: 0x161B9, size: 0x8, addend: 0x0, symName: __ZNSt3__121__unwrap_and_dispatchB7v160006INS_10__overloadINS_11__move_loopINS_17_ClassicAlgPolicyEEENS_14__move_trivialEEEP5LaserS8_S8_Li0EEENS_4pairIT0_T2_EESA_T1_SB_, symObjAddr: 0xCF64, symBinAddr: 0x100018520, symSize: 0x5A4 }
  - { offsetInCU: 0x8A4B, offset: 0x16252, size: 0x8, addend: 0x0, symName: __ZNSt3__114__unwrap_rangeB7v160006IP5LaserS2_EENS_4pairIT0_S4_EET_S6_, symObjAddr: 0xD508, symBinAddr: 0x100018AC4, symSize: 0x350 }
  - { offsetInCU: 0x8BE2, offset: 0x163E9, size: 0x8, addend: 0x0, symName: __ZNSt3__113__unwrap_iterB7v160006IP5LaserNS_18__unwrap_iter_implIS2_Lb1EEELi0EEEDTclsrT0_8__unwrapclsr3stdE7declvalIT_EEEES6_, symObjAddr: 0xDA88, symBinAddr: 0x100019044, symSize: 0x24 }
  - { offsetInCU: 0x8C26, offset: 0x1642D, size: 0x8, addend: 0x0, symName: __ZNSt3__19make_pairB7v160006IP5LaserS2_EENS_4pairINS_18__unwrap_ref_decayIT_E4typeENS4_IT0_E4typeEEEOS5_OS8_, symObjAddr: 0xDAAC, symBinAddr: 0x100019068, symSize: 0x20C }
  - { offsetInCU: 0x8C77, offset: 0x1647E, size: 0x8, addend: 0x0, symName: __ZNSt3__114__rewrap_rangeB7v160006IP5LaserS2_EET_S3_T0_, symObjAddr: 0xDCB8, symBinAddr: 0x100019274, symSize: 0x2C }
  - { offsetInCU: 0x8CC3, offset: 0x164CA, size: 0x8, addend: 0x0, symName: __ZNSt3__113__rewrap_iterB7v160006IP5LaserS2_NS_18__unwrap_iter_implIS2_Lb1EEEEET_S5_T0_, symObjAddr: 0xDCE4, symBinAddr: 0x1000192A0, symSize: 0x48 }
  - { offsetInCU: 0x8D18, offset: 0x1651F, size: 0x8, addend: 0x0, symName: __ZNSt3__119__copy_trivial_implB7v160006I5LaserS1_EENS_4pairIPT_PT0_EES4_S4_S6_, symObjAddr: 0xDD2C, symBinAddr: 0x1000192E8, symSize: 0x3B8 }
  - { offsetInCU: 0x8D87, offset: 0x1658E, size: 0x8, addend: 0x0, symName: __ZNSt3__19make_pairB7v160006IRP5LaserS2_EENS_4pairINS_18__unwrap_ref_decayIT_E4typeENS5_IT0_E4typeEEEOS6_OS9_, symObjAddr: 0xE0E4, symBinAddr: 0x1000196A0, symSize: 0x20C }
  - { offsetInCU: 0x8FA7, offset: 0x167AE, size: 0x8, addend: 0x0, symName: __ZNSt3__119__debug_db_insert_cB7v160006INS_6vectorI5BlockNS_9allocatorIS2_EEEEEEvPT_, symObjAddr: 0x15DD0, symBinAddr: 0x10001AD8C, symSize: 0x10 }
  - { offsetInCU: 0x8FD8, offset: 0x167DF, size: 0x8, addend: 0x0, symName: __ZNSt3__115__debug_db_swapB7v160006INS_6vectorI5BlockNS_9allocatorIS2_EEEEEEvPT_S7_, symObjAddr: 0x15DE0, symBinAddr: 0x10001AD9C, symSize: 0x14 }
  - { offsetInCU: 0x9017, offset: 0x1681E, size: 0x8, addend: 0x0, symName: __ZNSt3__119__allocate_at_leastB7v160006INS_9allocatorI8ObstacleEEEENS_19__allocation_resultINS_16allocator_traitsIT_E7pointerEEERS6_m, symObjAddr: 0x174CC, symBinAddr: 0x10001C488, symSize: 0x28C }
  - { offsetInCU: 0x905C, offset: 0x16863, size: 0x8, addend: 0x0, symName: __ZNSt3__142__uninitialized_allocator_move_if_noexceptB7v160006INS_9allocatorI8ObstacleEENS_16reverse_iteratorIPS2_EES6_S6_EET2_RT_T0_T1_S7_, symObjAddr: 0x17968, symBinAddr: 0x10001C924, symSize: 0x544 }
  - { offsetInCU: 0x9111, offset: 0x16918, size: 0x8, addend: 0x0, symName: __ZNSt3__14swapB7v160006IP8ObstacleEENS_9enable_ifIXaasr21is_move_constructibleIT_EE5valuesr18is_move_assignableIS4_EE5valueEvE4typeERS4_S7_, symObjAddr: 0x17F44, symBinAddr: 0x10001CF00, symSize: 0x134 }
  - { offsetInCU: 0x9162, offset: 0x16969, size: 0x8, addend: 0x0, symName: __ZNSt3__125__debug_db_invalidate_allB7v160006INS_6vectorI8ObstacleNS_9allocatorIS2_EEEEEEvPT_, symObjAddr: 0x18138, symBinAddr: 0x10001D0F4, symSize: 0x10 }
  - { offsetInCU: 0x9193, offset: 0x1699A, size: 0x8, addend: 0x0, symName: __ZNSt3__122__make_exception_guardB7v160006INS_29_AllocatorDestroyRangeReverseINS_9allocatorI8ObstacleEENS_16reverse_iteratorIPS3_EEEEEENS_28__exception_guard_exceptionsIT_EESA_, symObjAddr: 0x18148, symBinAddr: 0x10001D104, symSize: 0x1F8 }
  - { offsetInCU: 0x91CA, offset: 0x169D1, size: 0x8, addend: 0x0, symName: __ZNSt3__1neB7v160006IP8ObstacleS2_EEbRKNS_16reverse_iteratorIT_EERKNS3_IT0_EE, symObjAddr: 0x18384, symBinAddr: 0x10001D340, symSize: 0x48 }
  - { offsetInCU: 0x9216, offset: 0x16A1D, size: 0x8, addend: 0x0, symName: __ZNSt3__112__to_addressB7v160006INS_16reverse_iteratorIP8ObstacleEEvEENS_5decayIDTclsr19__to_address_helperIT_EE6__callclsr3stdE7declvalIRKS6_EEEEE4typeES8_, symObjAddr: 0x183CC, symBinAddr: 0x10001D388, symSize: 0x24 }
  - { offsetInCU: 0x9275, offset: 0x16A7C, size: 0x8, addend: 0x0, symName: __ZNSt3__119__allocator_destroyB7v160006INS_9allocatorI8ObstacleEENS_16reverse_iteratorINS4_IPS2_EEEES7_EEvRT_T0_T1_, symObjAddr: 0x18C30, symBinAddr: 0x10001DBEC, symSize: 0x70 }
  - { offsetInCU: 0x92DA, offset: 0x16AE1, size: 0x8, addend: 0x0, symName: __ZNSt3__1neB7v160006INS_16reverse_iteratorIP8ObstacleEES4_EEbRKNS1_IT_EERKNS1_IT0_EE, symObjAddr: 0x18EE8, symBinAddr: 0x10001DEA4, symSize: 0x2CC }
  - { offsetInCU: 0x9328, offset: 0x16B2F, size: 0x8, addend: 0x0, symName: __ZNSt3__112__to_addressB7v160006INS_16reverse_iteratorINS1_IP8ObstacleEEEEvEENS_5decayIDTclsr19__to_address_helperIT_EE6__callclsr3stdE7declvalIRKS7_EEEEE4typeES9_, symObjAddr: 0x191B4, symBinAddr: 0x10001E170, symSize: 0x24 }
  - { offsetInCU: 0x9387, offset: 0x16B8E, size: 0x8, addend: 0x0, symName: __ZNSt3__119__allocate_at_leastB7v160006INS_9allocatorI5AlienEEEENS_19__allocation_resultINS_16allocator_traitsIT_E7pointerEEERS6_m, symObjAddr: 0x1BE20, symBinAddr: 0x100020DDC, symSize: 0x28C }
  - { offsetInCU: 0x93CC, offset: 0x16BD3, size: 0x8, addend: 0x0, symName: __ZNSt3__142__uninitialized_allocator_move_if_noexceptB7v160006INS_9allocatorI5AlienEENS_16reverse_iteratorIPS2_EES6_S6_EET2_RT_T0_T1_S7_, symObjAddr: 0x1C2BC, symBinAddr: 0x100021278, symSize: 0x544 }
  - { offsetInCU: 0x9481, offset: 0x16C88, size: 0x8, addend: 0x0, symName: __ZNSt3__14swapB7v160006IP5AlienEENS_9enable_ifIXaasr21is_move_constructibleIT_EE5valuesr18is_move_assignableIS4_EE5valueEvE4typeERS4_S7_, symObjAddr: 0x1C898, symBinAddr: 0x100021854, symSize: 0x134 }
  - { offsetInCU: 0x94D2, offset: 0x16CD9, size: 0x8, addend: 0x0, symName: __ZNSt3__125__debug_db_invalidate_allB7v160006INS_6vectorI5AlienNS_9allocatorIS2_EEEEEEvPT_, symObjAddr: 0x1CA8C, symBinAddr: 0x100021A48, symSize: 0x10 }
  - { offsetInCU: 0x9503, offset: 0x16D0A, size: 0x8, addend: 0x0, symName: __ZNSt3__122__make_exception_guardB7v160006INS_29_AllocatorDestroyRangeReverseINS_9allocatorI5AlienEENS_16reverse_iteratorIPS3_EEEEEENS_28__exception_guard_exceptionsIT_EESA_, symObjAddr: 0x1CA9C, symBinAddr: 0x100021A58, symSize: 0x1F8 }
  - { offsetInCU: 0x953A, offset: 0x16D41, size: 0x8, addend: 0x0, symName: __ZNSt3__1neB7v160006IP5AlienS2_EEbRKNS_16reverse_iteratorIT_EERKNS3_IT0_EE, symObjAddr: 0x1CCD8, symBinAddr: 0x100021C94, symSize: 0x48 }
  - { offsetInCU: 0x9586, offset: 0x16D8D, size: 0x8, addend: 0x0, symName: __ZNSt3__112__to_addressB7v160006INS_16reverse_iteratorIP5AlienEEvEENS_5decayIDTclsr19__to_address_helperIT_EE6__callclsr3stdE7declvalIRKS6_EEEEE4typeES8_, symObjAddr: 0x1CD20, symBinAddr: 0x100021CDC, symSize: 0x24 }
  - { offsetInCU: 0x95E5, offset: 0x16DEC, size: 0x8, addend: 0x0, symName: __ZNSt3__119__allocator_destroyB7v160006INS_9allocatorI5AlienEENS_16reverse_iteratorINS4_IPS2_EEEES7_EEvRT_T0_T1_, symObjAddr: 0x1D584, symBinAddr: 0x100022540, symSize: 0x70 }
  - { offsetInCU: 0x964A, offset: 0x16E51, size: 0x8, addend: 0x0, symName: __ZNSt3__1neB7v160006INS_16reverse_iteratorIP5AlienEES4_EEbRKNS1_IT_EERKNS1_IT0_EE, symObjAddr: 0x1D83C, symBinAddr: 0x1000227F8, symSize: 0x2CC }
  - { offsetInCU: 0x9698, offset: 0x16E9F, size: 0x8, addend: 0x0, symName: __ZNSt3__112__to_addressB7v160006INS_16reverse_iteratorINS1_IP5AlienEEEEvEENS_5decayIDTclsr19__to_address_helperIT_EE6__callclsr3stdE7declvalIRKS7_EEEEE4typeES9_, symObjAddr: 0x1DB08, symBinAddr: 0x100022AC4, symSize: 0x24 }
  - { offsetInCU: 0x96F7, offset: 0x16EFE, size: 0x8, addend: 0x0, symName: __ZNSt3__1miB7v160006IPK5AlienS3_EEDTmicldtfp_4baseEcldtfp0_4baseEERKNS_11__wrap_iterIT_EERKNS5_IT0_EE, symObjAddr: 0x1E6B8, symBinAddr: 0x100023674, symSize: 0x48 }
  - { offsetInCU: 0x9743, offset: 0x16F4A, size: 0x8, addend: 0x0, symName: __ZNSt3__14moveB7v160006IP5AlienS2_EET0_T_S4_S3_, symObjAddr: 0x1E9A0, symBinAddr: 0x10002395C, symSize: 0x26C }
  - { offsetInCU: 0x97A0, offset: 0x16FA7, size: 0x8, addend: 0x0, symName: __ZNSt3__16__moveB7v160006INS_17_ClassicAlgPolicyEP5AlienS3_S3_EENS_4pairIT0_T2_EES5_T1_S6_, symObjAddr: 0x1F198, symBinAddr: 0x100024154, symSize: 0x22C }
  - { offsetInCU: 0x980F, offset: 0x17016, size: 0x8, addend: 0x0, symName: __ZNSt3__123__dispatch_copy_or_moveB7v160006INS_17_ClassicAlgPolicyENS_11__move_loopIS1_EENS_14__move_trivialEP5AlienS6_S6_EENS_4pairIT2_T4_EES8_T3_S9_, symObjAddr: 0x1F3C4, symBinAddr: 0x100024380, symSize: 0x22C }
  - { offsetInCU: 0x9890, offset: 0x17097, size: 0x8, addend: 0x0, symName: __ZNSt3__121__unwrap_and_dispatchB7v160006INS_10__overloadINS_11__move_loopINS_17_ClassicAlgPolicyEEENS_14__move_trivialEEEP5AlienS8_S8_Li0EEENS_4pairIT0_T2_EESA_T1_SB_, symObjAddr: 0x1F5F0, symBinAddr: 0x1000245AC, symSize: 0x5A4 }
  - { offsetInCU: 0x9929, offset: 0x17130, size: 0x8, addend: 0x0, symName: __ZNSt3__114__unwrap_rangeB7v160006IP5AlienS2_EENS_4pairIT0_S4_EET_S6_, symObjAddr: 0x1FB94, symBinAddr: 0x100024B50, symSize: 0x350 }
  - { offsetInCU: 0x9A4B, offset: 0x17252, size: 0x8, addend: 0x0, symName: __ZNSt3__113__unwrap_iterB7v160006IP5AlienNS_18__unwrap_iter_implIS2_Lb1EEELi0EEEDTclsrT0_8__unwrapclsr3stdE7declvalIT_EEEES6_, symObjAddr: 0x202E0, symBinAddr: 0x10002529C, symSize: 0x24 }
  - { offsetInCU: 0x9A8F, offset: 0x17296, size: 0x8, addend: 0x0, symName: __ZNSt3__19make_pairB7v160006IP5AlienS2_EENS_4pairINS_18__unwrap_ref_decayIT_E4typeENS4_IT0_E4typeEEEOS5_OS8_, symObjAddr: 0x20304, symBinAddr: 0x1000252C0, symSize: 0x20C }
  - { offsetInCU: 0x9AE0, offset: 0x172E7, size: 0x8, addend: 0x0, symName: __ZNSt3__114__rewrap_rangeB7v160006IP5AlienS2_EET_S3_T0_, symObjAddr: 0x20510, symBinAddr: 0x1000254CC, symSize: 0x2C }
  - { offsetInCU: 0x9B2C, offset: 0x17333, size: 0x8, addend: 0x0, symName: __ZNSt3__113__rewrap_iterB7v160006IP5AlienS2_NS_18__unwrap_iter_implIS2_Lb1EEEEET_S5_T0_, symObjAddr: 0x2053C, symBinAddr: 0x1000254F8, symSize: 0x48 }
  - { offsetInCU: 0x9BF8, offset: 0x173FF, size: 0x8, addend: 0x0, symName: __ZNSt3__1miB7v160006IPK5BlockS3_EEDTmicldtfp_4baseEcldtfp0_4baseEERKNS_11__wrap_iterIT_EERKNS5_IT0_EE, symObjAddr: 0x20B10, symBinAddr: 0x100025ACC, symSize: 0x48 }
  - { offsetInCU: 0x9C44, offset: 0x1744B, size: 0x8, addend: 0x0, symName: __ZNSt3__14moveB7v160006IP5BlockS2_EET0_T_S4_S3_, symObjAddr: 0x20DF8, symBinAddr: 0x100025DB4, symSize: 0x26C }
  - { offsetInCU: 0x9CA1, offset: 0x174A8, size: 0x8, addend: 0x0, symName: __ZNSt3__16__moveB7v160006INS_17_ClassicAlgPolicyEP5BlockS3_S3_EENS_4pairIT0_T2_EES5_T1_S6_, symObjAddr: 0x216B8, symBinAddr: 0x100026674, symSize: 0x22C }
  - { offsetInCU: 0x9D10, offset: 0x17517, size: 0x8, addend: 0x0, symName: __ZNSt3__123__dispatch_copy_or_moveB7v160006INS_17_ClassicAlgPolicyENS_11__move_loopIS1_EENS_14__move_trivialEP5BlockS6_S6_EENS_4pairIT2_T4_EES8_T3_S9_, symObjAddr: 0x218E4, symBinAddr: 0x1000268A0, symSize: 0x22C }
  - { offsetInCU: 0x9D91, offset: 0x17598, size: 0x8, addend: 0x0, symName: __ZNSt3__121__unwrap_and_dispatchB7v160006INS_10__overloadINS_11__move_loopINS_17_ClassicAlgPolicyEEENS_14__move_trivialEEEP5BlockS8_S8_Li0EEENS_4pairIT0_T2_EESA_T1_SB_, symObjAddr: 0x21B10, symBinAddr: 0x100026ACC, symSize: 0x5A4 }
  - { offsetInCU: 0x9E2A, offset: 0x17631, size: 0x8, addend: 0x0, symName: __ZNSt3__114__unwrap_rangeB7v160006IP5BlockS2_EENS_4pairIT0_S4_EET_S6_, symObjAddr: 0x220B4, symBinAddr: 0x100027070, symSize: 0x350 }
  - { offsetInCU: 0x9F4C, offset: 0x17753, size: 0x8, addend: 0x0, symName: __ZNSt3__113__unwrap_iterB7v160006IP5BlockNS_18__unwrap_iter_implIS2_Lb1EEELi0EEEDTclsrT0_8__unwrapclsr3stdE7declvalIT_EEEES6_, symObjAddr: 0x22800, symBinAddr: 0x1000277BC, symSize: 0x24 }
  - { offsetInCU: 0x9F90, offset: 0x17797, size: 0x8, addend: 0x0, symName: __ZNSt3__19make_pairB7v160006IP5BlockS2_EENS_4pairINS_18__unwrap_ref_decayIT_E4typeENS4_IT0_E4typeEEEOS5_OS8_, symObjAddr: 0x22824, symBinAddr: 0x1000277E0, symSize: 0x20C }
  - { offsetInCU: 0x9FE1, offset: 0x177E8, size: 0x8, addend: 0x0, symName: __ZNSt3__114__rewrap_rangeB7v160006IP5BlockS2_EET_S3_T0_, symObjAddr: 0x22A30, symBinAddr: 0x1000279EC, symSize: 0x2C }
  - { offsetInCU: 0xA02D, offset: 0x17834, size: 0x8, addend: 0x0, symName: __ZNSt3__113__rewrap_iterB7v160006IP5BlockS2_NS_18__unwrap_iter_implIS2_Lb1EEEEET_S5_T0_, symObjAddr: 0x22A5C, symBinAddr: 0x100027A18, symSize: 0x48 }
  - { offsetInCU: 0xA99F, offset: 0x181A6, size: 0x8, addend: 0x0, symName: __ZNSt3__16vectorI8ObstacleNS_9allocatorIS1_EEE26__swap_out_circular_bufferERNS_14__split_bufferIS1_RS3_EE, symObjAddr: 0x1661C, symBinAddr: 0x10001B5D8, symSize: 0x574 }
  - { offsetInCU: 0xAA32, offset: 0x18239, size: 0x8, addend: 0x0, symName: __ZNSt3__16vectorI5AlienNS_9allocatorIS1_EEE26__swap_out_circular_bufferERNS_14__split_bufferIS1_RS3_EE, symObjAddr: 0x1AF70, symBinAddr: 0x10001FF2C, symSize: 0x574 }
  - { offsetInCU: 0xCA34, offset: 0x1A23B, size: 0x8, addend: 0x0, symName: __ZN4GameC2Ev, symObjAddr: 0x0, symBinAddr: 0x10000C7A4, symSize: 0x294 }
  - { offsetInCU: 0xCA5E, offset: 0x1A265, size: 0x8, addend: 0x0, symName: __ZNSt3__16vectorI8ObstacleNS_9allocatorIS1_EEEC1B7v160006Ev, symObjAddr: 0x294, symBinAddr: 0x10000CA38, symSize: 0x2C }
  - { offsetInCU: 0xCA86, offset: 0x1A28D, size: 0x8, addend: 0x0, symName: __ZNSt3__16vectorI5AlienNS_9allocatorIS1_EEEC1B7v160006Ev, symObjAddr: 0x2C0, symBinAddr: 0x10000CA64, symSize: 0x2C }
  - { offsetInCU: 0xCAAE, offset: 0x1A2B5, size: 0x8, addend: 0x0, symName: __ZN4Game15CreateObstaclesEv, symObjAddr: 0x318, symBinAddr: 0x10000CA90, symSize: 0x524 }
  - { offsetInCU: 0xCB26, offset: 0x1A32D, size: 0x8, addend: 0x0, symName: __ZN4Game12CreateAliensEv, symObjAddr: 0x83C, symBinAddr: 0x10000CFB4, symSize: 0xAA0 }
  - { offsetInCU: 0xCBBC, offset: 0x1A3C3, size: 0x8, addend: 0x0, symName: __ZNSt3__16vectorI5AlienNS_9allocatorIS1_EEED1B7v160006Ev, symObjAddr: 0x1308, symBinAddr: 0x10000DA54, symSize: 0x2C }
  - { offsetInCU: 0xCBE4, offset: 0x1A3EB, size: 0x8, addend: 0x0, symName: __ZNSt3__16vectorI8ObstacleNS_9allocatorIS1_EEED1B7v160006Ev, symObjAddr: 0x1334, symBinAddr: 0x10000DA80, symSize: 0x2C }
  - { offsetInCU: 0xCC0C, offset: 0x1A413, size: 0x8, addend: 0x0, symName: __ZN4GameC1Ev, symObjAddr: 0x1360, symBinAddr: 0x10000DAAC, symSize: 0x2C }
  - { offsetInCU: 0xCC36, offset: 0x1A43D, size: 0x8, addend: 0x0, symName: __ZN4GameD2Ev, symObjAddr: 0x138C, symBinAddr: 0x10000DAD8, symSize: 0x7C }
  - { offsetInCU: 0xCC60, offset: 0x1A467, size: 0x8, addend: 0x0, symName: __ZN4GameD1Ev, symObjAddr: 0x1414, symBinAddr: 0x10000DB54, symSize: 0x2C }
  - { offsetInCU: 0xCC8A, offset: 0x1A491, size: 0x8, addend: 0x0, symName: __ZN4Game6UpdateEv, symObjAddr: 0x1440, symBinAddr: 0x10000DB80, symSize: 0x5A4 }
  - { offsetInCU: 0xCD77, offset: 0x1A57E, size: 0x8, addend: 0x0, symName: __ZNSt3__16vectorI5LaserNS_9allocatorIS1_EEE5beginB7v160006Ev, symObjAddr: 0x19E4, symBinAddr: 0x10000E124, symSize: 0x268 }
  - { offsetInCU: 0xCD9E, offset: 0x1A5A5, size: 0x8, addend: 0x0, symName: __ZNSt3__16vectorI5LaserNS_9allocatorIS1_EEE3endB7v160006Ev, symObjAddr: 0x1C4C, symBinAddr: 0x10000E38C, symSize: 0x26C }
  - { offsetInCU: 0xCDC5, offset: 0x1A5CC, size: 0x8, addend: 0x0, symName: __ZNKSt3__111__wrap_iterIP5LaserEdeB7v160006Ev, symObjAddr: 0x1EEC, symBinAddr: 0x10000E62C, symSize: 0x60 }
  - { offsetInCU: 0xCDE9, offset: 0x1A5F0, size: 0x8, addend: 0x0, symName: __ZNSt3__111__wrap_iterIP5LaserEppB7v160006Ev, symObjAddr: 0x1F4C, symBinAddr: 0x10000E68C, symSize: 0x68 }
  - { offsetInCU: 0xCE0D, offset: 0x1A614, size: 0x8, addend: 0x0, symName: __ZN4Game10MoveAliensEv, symObjAddr: 0x1FB4, symBinAddr: 0x10000E6F4, symSize: 0x5D4 }
  - { offsetInCU: 0xCE9E, offset: 0x1A6A5, size: 0x8, addend: 0x0, symName: __ZN4Game16AlienShootLasersEv, symObjAddr: 0x2588, symBinAddr: 0x10000ECC8, symSize: 0x6E0 }
  - { offsetInCU: 0xCEF1, offset: 0x1A6F8, size: 0x8, addend: 0x0, symName: __ZN4Game15CheckCollisionsEv, symObjAddr: 0x2C68, symBinAddr: 0x10000F3A8, symSize: 0x1914 }
  - { offsetInCU: 0xD011, offset: 0x1A818, size: 0x8, addend: 0x0, symName: __ZN4Game20DeleteInactiveLasersEv, symObjAddr: 0x457C, symBinAddr: 0x100010CBC, symSize: 0x6C0 }
  - { offsetInCU: 0xD079, offset: 0x1A880, size: 0x8, addend: 0x0, symName: __ZN4Game4DrawEv, symObjAddr: 0x4C3C, symBinAddr: 0x10001137C, symSize: 0x68C }
  - { offsetInCU: 0xD211, offset: 0x1AA18, size: 0x8, addend: 0x0, symName: __ZNSt3__16vectorI8ObstacleNS_9allocatorIS1_EEE5beginB7v160006Ev, symObjAddr: 0x52C8, symBinAddr: 0x100011A08, symSize: 0x268 }
  - { offsetInCU: 0xD238, offset: 0x1AA3F, size: 0x8, addend: 0x0, symName: __ZNSt3__16vectorI8ObstacleNS_9allocatorIS1_EEE3endB7v160006Ev, symObjAddr: 0x5530, symBinAddr: 0x100011C70, symSize: 0x26C }
  - { offsetInCU: 0xD25F, offset: 0x1AA66, size: 0x8, addend: 0x0, symName: __ZNKSt3__111__wrap_iterIP8ObstacleEdeB7v160006Ev, symObjAddr: 0x57D0, symBinAddr: 0x100011F10, symSize: 0x60 }
  - { offsetInCU: 0xD283, offset: 0x1AA8A, size: 0x8, addend: 0x0, symName: __ZNSt3__111__wrap_iterIP8ObstacleEppB7v160006Ev, symObjAddr: 0x5830, symBinAddr: 0x100011F70, symSize: 0x68 }
  - { offsetInCU: 0xD2A7, offset: 0x1AAAE, size: 0x8, addend: 0x0, symName: __ZNSt3__16vectorI5AlienNS_9allocatorIS1_EEE5beginB7v160006Ev, symObjAddr: 0x5898, symBinAddr: 0x100011FD8, symSize: 0x268 }
  - { offsetInCU: 0xD2CE, offset: 0x1AAD5, size: 0x8, addend: 0x0, symName: __ZNSt3__16vectorI5AlienNS_9allocatorIS1_EEE3endB7v160006Ev, symObjAddr: 0x5B00, symBinAddr: 0x100012240, symSize: 0x26C }
  - { offsetInCU: 0xD2F5, offset: 0x1AAFC, size: 0x8, addend: 0x0, symName: __ZNKSt3__111__wrap_iterIP5AlienEdeB7v160006Ev, symObjAddr: 0x5DA0, symBinAddr: 0x1000124E0, symSize: 0x60 }
  - { offsetInCU: 0xD319, offset: 0x1AB20, size: 0x8, addend: 0x0, symName: __ZNSt3__111__wrap_iterIP5AlienEppB7v160006Ev, symObjAddr: 0x5E00, symBinAddr: 0x100012540, symSize: 0x68 }
  - { offsetInCU: 0xD33D, offset: 0x1AB44, size: 0x8, addend: 0x0, symName: __ZN4Game11HandleInputEv, symObjAddr: 0x5E68, symBinAddr: 0x1000125A8, symSize: 0x98 }
  - { offsetInCU: 0xD363, offset: 0x1AB6A, size: 0x8, addend: 0x0, symName: __ZNKSt3__111__wrap_iterIP5LaserEptB7v160006Ev, symObjAddr: 0x5F00, symBinAddr: 0x100012640, symSize: 0x64 }
  - { offsetInCU: 0xD387, offset: 0x1AB8E, size: 0x8, addend: 0x0, symName: __ZNSt3__16vectorI5LaserNS_9allocatorIS1_EEE5eraseB7v160006ENS_11__wrap_iterIPKS1_EE, symObjAddr: 0x5F64, symBinAddr: 0x1000126A4, symSize: 0x400 }
  - { offsetInCU: 0xD3EB, offset: 0x1ABF2, size: 0x8, addend: 0x0, symName: __ZNSt3__111__wrap_iterIPK5LaserEC1B7v160006IPS1_EERKNS0_IT_EEPNS_9enable_ifIXsr14is_convertibleIS7_S3_EE5valueEvE4typeE, symObjAddr: 0x6364, symBinAddr: 0x100012AA4, symSize: 0x3C }
  - { offsetInCU: 0xD434, offset: 0x1AC3B, size: 0x8, addend: 0x0, symName: __ZN4Game14MoveDownAliensEv, symObjAddr: 0x63A0, symBinAddr: 0x100012AE0, symSize: 0x3C4 }
  - { offsetInCU: 0xD4B6, offset: 0x1ACBD, size: 0x8, addend: 0x0, symName: __ZNKSt3__16vectorI5AlienNS_9allocatorIS1_EEE4sizeB7v160006Ev, symObjAddr: 0x6764, symBinAddr: 0x100012EA4, symSize: 0xB0 }
  - { offsetInCU: 0xD4DA, offset: 0x1ACE1, size: 0x8, addend: 0x0, symName: __ZNSt3__16vectorI5AlienNS_9allocatorIS1_EEEixB7v160006Em, symObjAddr: 0x6814, symBinAddr: 0x100012F54, symSize: 0x6C }
  - { offsetInCU: 0xD50F, offset: 0x1AD16, size: 0x8, addend: 0x0, symName: __ZNSt3__16vectorINS0_IiNS_9allocatorIiEEEENS1_IS3_EEEixB7v160006Em, symObjAddr: 0x6960, symBinAddr: 0x100012FC0, symSize: 0x74 }
  - { offsetInCU: 0xD544, offset: 0x1AD4B, size: 0x8, addend: 0x0, symName: __ZNKSt3__16vectorIiNS_9allocatorIiEEE4sizeB7v160006Ev, symObjAddr: 0x69D4, symBinAddr: 0x100013034, symSize: 0xB0 }
  - { offsetInCU: 0xD568, offset: 0x1AD6F, size: 0x8, addend: 0x0, symName: __ZNSt3__16vectorI8ObstacleNS_9allocatorIS1_EEE9push_backB7v160006EOS1_, symObjAddr: 0x6A84, symBinAddr: 0x1000130E4, symSize: 0xE0 }
  - { offsetInCU: 0xD59D, offset: 0x1ADA4, size: 0x8, addend: 0x0, symName: __ZN8ObstacleD1Ev, symObjAddr: 0x6B64, symBinAddr: 0x1000131C4, symSize: 0x2C }
  - { offsetInCU: 0xD5C7, offset: 0x1ADCE, size: 0x8, addend: 0x0, symName: __ZNSt3__16vectorI5AlienNS_9allocatorIS1_EEE9push_backB7v160006EOS1_, symObjAddr: 0x6B90, symBinAddr: 0x1000131F0, symSize: 0xE0 }
  - { offsetInCU: 0xD5FC, offset: 0x1AE03, size: 0x8, addend: 0x0, symName: __ZNKSt3__111__wrap_iterIP5AlienEptB7v160006Ev, symObjAddr: 0x6C70, symBinAddr: 0x1000132D0, symSize: 0x64 }
  - { offsetInCU: 0xD620, offset: 0x1AE27, size: 0x8, addend: 0x0, symName: __ZNSt3__16vectorI5AlienNS_9allocatorIS1_EEE5eraseB7v160006ENS_11__wrap_iterIPKS1_EE, symObjAddr: 0x6CD4, symBinAddr: 0x100013334, symSize: 0x400 }
  - { offsetInCU: 0xD67F, offset: 0x1AE86, size: 0x8, addend: 0x0, symName: __ZNSt3__111__wrap_iterIPK5AlienEC1B7v160006IPS1_EERKNS0_IT_EEPNS_9enable_ifIXsr14is_convertibleIS7_S3_EE5valueEvE4typeE, symObjAddr: 0x70D4, symBinAddr: 0x100013734, symSize: 0x3C }
  - { offsetInCU: 0xD6C8, offset: 0x1AECF, size: 0x8, addend: 0x0, symName: __ZNSt3__16vectorI5BlockNS_9allocatorIS1_EEE5beginB7v160006Ev, symObjAddr: 0x7110, symBinAddr: 0x100013770, symSize: 0x268 }
  - { offsetInCU: 0xD6EF, offset: 0x1AEF6, size: 0x8, addend: 0x0, symName: __ZNSt3__16vectorI5BlockNS_9allocatorIS1_EEE3endB7v160006Ev, symObjAddr: 0x73AC, symBinAddr: 0x100013A0C, symSize: 0x26C }
  - { offsetInCU: 0xD716, offset: 0x1AF1D, size: 0x8, addend: 0x0, symName: __ZNKSt3__111__wrap_iterIP5BlockEptB7v160006Ev, symObjAddr: 0x7618, symBinAddr: 0x100013C78, symSize: 0x64 }
  - { offsetInCU: 0xD73A, offset: 0x1AF41, size: 0x8, addend: 0x0, symName: __ZNSt3__16vectorI5BlockNS_9allocatorIS1_EEE5eraseB7v160006ENS_11__wrap_iterIPKS1_EE, symObjAddr: 0x767C, symBinAddr: 0x100013CDC, symSize: 0x400 }
  - { offsetInCU: 0xD799, offset: 0x1AFA0, size: 0x8, addend: 0x0, symName: __ZNSt3__111__wrap_iterIPK5BlockEC1B7v160006IPS1_EERKNS0_IT_EEPNS_9enable_ifIXsr14is_convertibleIS7_S3_EE5valueEvE4typeE, symObjAddr: 0x7A7C, symBinAddr: 0x1000140DC, symSize: 0x3C }
  - { offsetInCU: 0xD7E2, offset: 0x1AFE9, size: 0x8, addend: 0x0, symName: __ZNSt3__111__wrap_iterIP5BlockEppB7v160006Ev, symObjAddr: 0x7AB8, symBinAddr: 0x100014118, symSize: 0x68 }
  - { offsetInCU: 0xD806, offset: 0x1B00D, size: 0x8, addend: 0x0, symName: __ZNKSt3__111__wrap_iterIP5LaserE4baseB7v160006Ev, symObjAddr: 0x7B68, symBinAddr: 0x1000141C8, symSize: 0x60 }
  - { offsetInCU: 0xD82A, offset: 0x1B031, size: 0x8, addend: 0x0, symName: __ZNKSt3__111__wrap_iterIP8ObstacleE4baseB7v160006Ev, symObjAddr: 0x7C10, symBinAddr: 0x100014270, symSize: 0x60 }
  - { offsetInCU: 0xD84E, offset: 0x1B055, size: 0x8, addend: 0x0, symName: __ZNKSt3__111__wrap_iterIP5AlienE4baseB7v160006Ev, symObjAddr: 0x7CB8, symBinAddr: 0x100014318, symSize: 0x60 }
  - { offsetInCU: 0xD872, offset: 0x1B079, size: 0x8, addend: 0x0, symName: __ZN8ObstacleD2Ev, symObjAddr: 0x7D18, symBinAddr: 0x100014378, symSize: 0x30 }
  - { offsetInCU: 0xD89C, offset: 0x1B0A3, size: 0x8, addend: 0x0, symName: __ZNSt3__16vectorI5BlockNS_9allocatorIS1_EEED1B7v160006Ev, symObjAddr: 0x7D48, symBinAddr: 0x1000143A8, symSize: 0x2C }
  - { offsetInCU: 0xD8C4, offset: 0x1B0CB, size: 0x8, addend: 0x0, symName: __ZNSt3__16vectorI5BlockNS_9allocatorIS1_EEED2B7v160006Ev, symObjAddr: 0x7D74, symBinAddr: 0x1000143D4, symSize: 0x1F8 }
  - { offsetInCU: 0xD8ED, offset: 0x1B0F4, size: 0x8, addend: 0x0, symName: __ZNSt3__16vectorI5BlockNS_9allocatorIS1_EEE16__destroy_vectorC1ERS4_, symObjAddr: 0x7F6C, symBinAddr: 0x1000145CC, symSize: 0x34 }
  - { offsetInCU: 0xD924, offset: 0x1B12B, size: 0x8, addend: 0x0, symName: __ZNSt3__16vectorI5BlockNS_9allocatorIS1_EEE16__destroy_vectorclB7v160006Ev, symObjAddr: 0x7FA0, symBinAddr: 0x100014600, symSize: 0x264 }
  - { offsetInCU: 0xD948, offset: 0x1B14F, size: 0x8, addend: 0x0, symName: __ZNSt3__16vectorI5BlockNS_9allocatorIS1_EEE16__destroy_vectorC2ERS4_, symObjAddr: 0x8204, symBinAddr: 0x100014864, symSize: 0x70 }
  - { offsetInCU: 0xD97F, offset: 0x1B186, size: 0x8, addend: 0x0, symName: __ZNKSt3__16vectorI5BlockNS_9allocatorIS1_EEE17__annotate_deleteB7v160006Ev, symObjAddr: 0x8274, symBinAddr: 0x1000148D4, symSize: 0xCC }
  - { offsetInCU: 0xD9A3, offset: 0x1B1AA, size: 0x8, addend: 0x0, symName: __ZNSt3__16vectorI5BlockNS_9allocatorIS1_EEE7__clearB7v160006Ev, symObjAddr: 0x8350, symBinAddr: 0x1000149B0, symSize: 0x64 }
  - { offsetInCU: 0xD9C8, offset: 0x1B1CF, size: 0x8, addend: 0x0, symName: __ZNSt3__116allocator_traitsINS_9allocatorI5BlockEEE10deallocateB7v160006ERS3_PS2_m, symObjAddr: 0x83B4, symBinAddr: 0x100014A14, symSize: 0x34 }
  - { offsetInCU: 0xDA08, offset: 0x1B20F, size: 0x8, addend: 0x0, symName: __ZNSt3__16vectorI5BlockNS_9allocatorIS1_EEE7__allocB7v160006Ev, symObjAddr: 0x83E8, symBinAddr: 0x100014A48, symSize: 0x28 }
  - { offsetInCU: 0xDA2C, offset: 0x1B233, size: 0x8, addend: 0x0, symName: __ZNKSt3__16vectorI5BlockNS_9allocatorIS1_EEE8capacityB7v160006Ev, symObjAddr: 0x8410, symBinAddr: 0x100014A70, symSize: 0xBC }
  - { offsetInCU: 0xDA50, offset: 0x1B257, size: 0x8, addend: 0x0, symName: __ZNKSt3__16vectorI5BlockNS_9allocatorIS1_EEE31__annotate_contiguous_containerEPKvS6_S6_S6_, symObjAddr: 0x84CC, symBinAddr: 0x100014B2C, symSize: 0x58 }
  - { offsetInCU: 0xDAB0, offset: 0x1B2B7, size: 0x8, addend: 0x0, symName: __ZNKSt3__16vectorI5BlockNS_9allocatorIS1_EEE4dataB7v160006Ev, symObjAddr: 0x8524, symBinAddr: 0x100014B84, symSize: 0x64 }
  - { offsetInCU: 0xDAD4, offset: 0x1B2DB, size: 0x8, addend: 0x0, symName: __ZNKSt3__16vectorI5BlockNS_9allocatorIS1_EEE4sizeB7v160006Ev, symObjAddr: 0x8588, symBinAddr: 0x100014BE8, symSize: 0xB0 }
  - { offsetInCU: 0xDAF8, offset: 0x1B2FF, size: 0x8, addend: 0x0, symName: __ZNSt3__16vectorI5BlockNS_9allocatorIS1_EEE22__base_destruct_at_endB7v160006EPS1_, symObjAddr: 0x864C, symBinAddr: 0x100014CAC, symSize: 0x114 }
  - { offsetInCU: 0xDB3B, offset: 0x1B342, size: 0x8, addend: 0x0, symName: __ZNSt3__116allocator_traitsINS_9allocatorI5BlockEEE7destroyB7v160006IS2_vEEvRS3_PT_, symObjAddr: 0x8760, symBinAddr: 0x100014DC0, symSize: 0x2C }
  - { offsetInCU: 0xDB76, offset: 0x1B37D, size: 0x8, addend: 0x0, symName: __ZNSt3__19allocatorI5BlockE7destroyB7v160006EPS1_, symObjAddr: 0x878C, symBinAddr: 0x100014DEC, symSize: 0x28 }
  - { offsetInCU: 0xDBA8, offset: 0x1B3AF, size: 0x8, addend: 0x0, symName: __ZNSt3__19allocatorI5BlockE10deallocateB7v160006EPS1_m, symObjAddr: 0x87B4, symBinAddr: 0x100014E14, symSize: 0x4C }
  - { offsetInCU: 0xDBE8, offset: 0x1B3EF, size: 0x8, addend: 0x0, symName: __ZNSt3__117__compressed_pairIP5BlockNS_9allocatorIS1_EEE6secondB7v160006Ev, symObjAddr: 0x887C, symBinAddr: 0x100014E60, symSize: 0x24 }
  - { offsetInCU: 0xDC0D, offset: 0x1B414, size: 0x8, addend: 0x0, symName: __ZNSt3__122__compressed_pair_elemINS_9allocatorI5BlockEELi1ELb1EE5__getB7v160006Ev, symObjAddr: 0x88A0, symBinAddr: 0x100014E84, symSize: 0x14 }
  - { offsetInCU: 0xDC30, offset: 0x1B437, size: 0x8, addend: 0x0, symName: __ZNKSt3__16vectorI5BlockNS_9allocatorIS1_EEE9__end_capB7v160006Ev, symObjAddr: 0x88B4, symBinAddr: 0x100014E98, symSize: 0x28 }
  - { offsetInCU: 0xDC54, offset: 0x1B45B, size: 0x8, addend: 0x0, symName: __ZNKSt3__117__compressed_pairIP5BlockNS_9allocatorIS1_EEE5firstB7v160006Ev, symObjAddr: 0x88DC, symBinAddr: 0x100014EC0, symSize: 0x24 }
  - { offsetInCU: 0xDC79, offset: 0x1B480, size: 0x8, addend: 0x0, symName: __ZNKSt3__122__compressed_pair_elemIP5BlockLi0ELb0EE5__getB7v160006Ev, symObjAddr: 0x8900, symBinAddr: 0x100014EE4, symSize: 0x14 }
  - { offsetInCU: 0xDC9C, offset: 0x1B4A3, size: 0x8, addend: 0x0, symName: __ZNKSt3__111__wrap_iterIP5BlockE4baseB7v160006Ev, symObjAddr: 0x895C, symBinAddr: 0x100014F40, symSize: 0x60 }
  - { offsetInCU: 0xDCC0, offset: 0x1B4C7, size: 0x8, addend: 0x0, symName: __ZNSt3__16vectorI8ObstacleNS_9allocatorIS1_EEEC2B7v160006Ev, symObjAddr: 0x89BC, symBinAddr: 0x100014FA0, symSize: 0x2F4 }
  - { offsetInCU: 0xDCF3, offset: 0x1B4FA, size: 0x8, addend: 0x0, symName: __ZNSt3__117__compressed_pairIP8ObstacleNS_9allocatorIS1_EEEC1B7v160006IDnNS_18__default_init_tagEEEOT_OT0_, symObjAddr: 0x8CB0, symBinAddr: 0x100015294, symSize: 0x3C }
  - { offsetInCU: 0xDD49, offset: 0x1B550, size: 0x8, addend: 0x0, symName: __ZNSt3__117__compressed_pairIP8ObstacleNS_9allocatorIS1_EEEC2B7v160006IDnNS_18__default_init_tagEEEOT_OT0_, symObjAddr: 0x8CFC, symBinAddr: 0x1000152E0, symSize: 0x40 }
  - { offsetInCU: 0xDD9F, offset: 0x1B5A6, size: 0x8, addend: 0x0, symName: __ZNSt3__122__compressed_pair_elemIP8ObstacleLi0ELb0EEC2B7v160006IDnvEEOT_, symObjAddr: 0x8D3C, symBinAddr: 0x100015320, symSize: 0x64 }
  - { offsetInCU: 0xDDDF, offset: 0x1B5E6, size: 0x8, addend: 0x0, symName: __ZNSt3__122__compressed_pair_elemINS_9allocatorI8ObstacleEELi1ELb1EEC2B7v160006ENS_18__default_init_tagE, symObjAddr: 0x8DA0, symBinAddr: 0x100015384, symSize: 0x2C }
  - { offsetInCU: 0xDE11, offset: 0x1B618, size: 0x8, addend: 0x0, symName: __ZNSt3__19allocatorI8ObstacleEC2B7v160006Ev, symObjAddr: 0x8DCC, symBinAddr: 0x1000153B0, symSize: 0x2C }
  - { offsetInCU: 0xDE3A, offset: 0x1B641, size: 0x8, addend: 0x0, symName: __ZNSt3__116__non_trivial_ifILb1ENS_9allocatorI8ObstacleEEEC2B7v160006Ev, symObjAddr: 0x8DF8, symBinAddr: 0x1000153DC, symSize: 0x14 }
  - { offsetInCU: 0xDE61, offset: 0x1B668, size: 0x8, addend: 0x0, symName: __ZNSt3__16vectorI5AlienNS_9allocatorIS1_EEEC2B7v160006Ev, symObjAddr: 0x8E0C, symBinAddr: 0x1000153F0, symSize: 0x2F4 }
  - { offsetInCU: 0xDE8A, offset: 0x1B691, size: 0x8, addend: 0x0, symName: __ZNSt3__117__compressed_pairIP5AlienNS_9allocatorIS1_EEEC1B7v160006IDnNS_18__default_init_tagEEEOT_OT0_, symObjAddr: 0x9100, symBinAddr: 0x1000156E4, symSize: 0x3C }
  - { offsetInCU: 0xDEE0, offset: 0x1B6E7, size: 0x8, addend: 0x0, symName: __ZNSt3__117__compressed_pairIP5AlienNS_9allocatorIS1_EEEC2B7v160006IDnNS_18__default_init_tagEEEOT_OT0_, symObjAddr: 0x914C, symBinAddr: 0x100015730, symSize: 0x40 }
  - { offsetInCU: 0xDF36, offset: 0x1B73D, size: 0x8, addend: 0x0, symName: __ZNSt3__122__compressed_pair_elemIP5AlienLi0ELb0EEC2B7v160006IDnvEEOT_, symObjAddr: 0x918C, symBinAddr: 0x100015770, symSize: 0x64 }
  - { offsetInCU: 0xDF76, offset: 0x1B77D, size: 0x8, addend: 0x0, symName: __ZNSt3__122__compressed_pair_elemINS_9allocatorI5AlienEELi1ELb1EEC2B7v160006ENS_18__default_init_tagE, symObjAddr: 0x91F0, symBinAddr: 0x1000157D4, symSize: 0x2C }
  - { offsetInCU: 0xDFA8, offset: 0x1B7AF, size: 0x8, addend: 0x0, symName: __ZNSt3__19allocatorI5AlienEC2B7v160006Ev, symObjAddr: 0x921C, symBinAddr: 0x100015800, symSize: 0x2C }
  - { offsetInCU: 0xDFD1, offset: 0x1B7D8, size: 0x8, addend: 0x0, symName: __ZNSt3__116__non_trivial_ifILb1ENS_9allocatorI5AlienEEEC2B7v160006Ev, symObjAddr: 0x9248, symBinAddr: 0x10001582C, symSize: 0x14 }
  - { offsetInCU: 0xDFF8, offset: 0x1B7FF, size: 0x8, addend: 0x0, symName: __ZNSt3__16vectorI8ObstacleNS_9allocatorIS1_EEED2B7v160006Ev, symObjAddr: 0x96AC, symBinAddr: 0x100015840, symSize: 0x1F8 }
  - { offsetInCU: 0xE021, offset: 0x1B828, size: 0x8, addend: 0x0, symName: __ZNSt3__16vectorI8ObstacleNS_9allocatorIS1_EEE16__destroy_vectorC1ERS4_, symObjAddr: 0x98A4, symBinAddr: 0x100015A38, symSize: 0x34 }
  - { offsetInCU: 0xE058, offset: 0x1B85F, size: 0x8, addend: 0x0, symName: __ZNSt3__16vectorI8ObstacleNS_9allocatorIS1_EEE16__destroy_vectorclB7v160006Ev, symObjAddr: 0x98D8, symBinAddr: 0x100015A6C, symSize: 0x264 }
  - { offsetInCU: 0xE07C, offset: 0x1B883, size: 0x8, addend: 0x0, symName: __ZNSt3__16vectorI8ObstacleNS_9allocatorIS1_EEE16__destroy_vectorC2ERS4_, symObjAddr: 0x9B3C, symBinAddr: 0x100015CD0, symSize: 0x70 }
  - { offsetInCU: 0xE0B3, offset: 0x1B8BA, size: 0x8, addend: 0x0, symName: __ZNKSt3__16vectorI8ObstacleNS_9allocatorIS1_EEE17__annotate_deleteB7v160006Ev, symObjAddr: 0x9BAC, symBinAddr: 0x100015D40, symSize: 0xCC }
  - { offsetInCU: 0xE0D7, offset: 0x1B8DE, size: 0x8, addend: 0x0, symName: __ZNSt3__16vectorI8ObstacleNS_9allocatorIS1_EEE7__clearB7v160006Ev, symObjAddr: 0x9C88, symBinAddr: 0x100015E1C, symSize: 0x64 }
  - { offsetInCU: 0xE0FC, offset: 0x1B903, size: 0x8, addend: 0x0, symName: __ZNSt3__116allocator_traitsINS_9allocatorI8ObstacleEEE10deallocateB7v160006ERS3_PS2_m, symObjAddr: 0x9CEC, symBinAddr: 0x100015E80, symSize: 0x34 }
  - { offsetInCU: 0xE13C, offset: 0x1B943, size: 0x8, addend: 0x0, symName: __ZNSt3__16vectorI8ObstacleNS_9allocatorIS1_EEE7__allocB7v160006Ev, symObjAddr: 0x9D20, symBinAddr: 0x100015EB4, symSize: 0x28 }
  - { offsetInCU: 0xE160, offset: 0x1B967, size: 0x8, addend: 0x0, symName: __ZNKSt3__16vectorI8ObstacleNS_9allocatorIS1_EEE8capacityB7v160006Ev, symObjAddr: 0x9D48, symBinAddr: 0x100015EDC, symSize: 0xBC }
  - { offsetInCU: 0xE184, offset: 0x1B98B, size: 0x8, addend: 0x0, symName: __ZNKSt3__16vectorI8ObstacleNS_9allocatorIS1_EEE31__annotate_contiguous_containerEPKvS6_S6_S6_, symObjAddr: 0x9E04, symBinAddr: 0x100015F98, symSize: 0x58 }
  - { offsetInCU: 0xE1E4, offset: 0x1B9EB, size: 0x8, addend: 0x0, symName: __ZNKSt3__16vectorI8ObstacleNS_9allocatorIS1_EEE4dataB7v160006Ev, symObjAddr: 0x9E5C, symBinAddr: 0x100015FF0, symSize: 0x64 }
  - { offsetInCU: 0xE208, offset: 0x1BA0F, size: 0x8, addend: 0x0, symName: __ZNKSt3__16vectorI8ObstacleNS_9allocatorIS1_EEE4sizeB7v160006Ev, symObjAddr: 0x9EC0, symBinAddr: 0x100016054, symSize: 0xB0 }
  - { offsetInCU: 0xE22C, offset: 0x1BA33, size: 0x8, addend: 0x0, symName: __ZNSt3__16vectorI8ObstacleNS_9allocatorIS1_EEE22__base_destruct_at_endB7v160006EPS1_, symObjAddr: 0x9F84, symBinAddr: 0x100016118, symSize: 0x114 }
  - { offsetInCU: 0xE26F, offset: 0x1BA76, size: 0x8, addend: 0x0, symName: __ZNSt3__116allocator_traitsINS_9allocatorI8ObstacleEEE7destroyB7v160006IS2_vEEvRS3_PT_, symObjAddr: 0xA098, symBinAddr: 0x10001622C, symSize: 0x2C }
  - { offsetInCU: 0xE2AA, offset: 0x1BAB1, size: 0x8, addend: 0x0, symName: __ZNSt3__19allocatorI8ObstacleE7destroyB7v160006EPS1_, symObjAddr: 0xA0C4, symBinAddr: 0x100016258, symSize: 0x28 }
  - { offsetInCU: 0xE2DC, offset: 0x1BAE3, size: 0x8, addend: 0x0, symName: __ZNSt3__19allocatorI8ObstacleE10deallocateB7v160006EPS1_m, symObjAddr: 0xA0EC, symBinAddr: 0x100016280, symSize: 0x4C }
  - { offsetInCU: 0xE31C, offset: 0x1BB23, size: 0x8, addend: 0x0, symName: __ZNSt3__117__compressed_pairIP8ObstacleNS_9allocatorIS1_EEE6secondB7v160006Ev, symObjAddr: 0xA138, symBinAddr: 0x1000162CC, symSize: 0x24 }
  - { offsetInCU: 0xE341, offset: 0x1BB48, size: 0x8, addend: 0x0, symName: __ZNSt3__122__compressed_pair_elemINS_9allocatorI8ObstacleEELi1ELb1EE5__getB7v160006Ev, symObjAddr: 0xA15C, symBinAddr: 0x1000162F0, symSize: 0x14 }
  - { offsetInCU: 0xE364, offset: 0x1BB6B, size: 0x8, addend: 0x0, symName: __ZNKSt3__16vectorI8ObstacleNS_9allocatorIS1_EEE9__end_capB7v160006Ev, symObjAddr: 0xA170, symBinAddr: 0x100016304, symSize: 0x28 }
  - { offsetInCU: 0xE388, offset: 0x1BB8F, size: 0x8, addend: 0x0, symName: __ZNKSt3__117__compressed_pairIP8ObstacleNS_9allocatorIS1_EEE5firstB7v160006Ev, symObjAddr: 0xA198, symBinAddr: 0x10001632C, symSize: 0x24 }
  - { offsetInCU: 0xE3AD, offset: 0x1BBB4, size: 0x8, addend: 0x0, symName: __ZNKSt3__122__compressed_pair_elemIP8ObstacleLi0ELb0EE5__getB7v160006Ev, symObjAddr: 0xA1BC, symBinAddr: 0x100016350, symSize: 0x14 }
  - { offsetInCU: 0xE3D0, offset: 0x1BBD7, size: 0x8, addend: 0x0, symName: __ZNSt3__16vectorI5AlienNS_9allocatorIS1_EEED2B7v160006Ev, symObjAddr: 0xA1D0, symBinAddr: 0x100016364, symSize: 0x1F8 }
  - { offsetInCU: 0xE3F9, offset: 0x1BC00, size: 0x8, addend: 0x0, symName: __ZNSt3__16vectorI5AlienNS_9allocatorIS1_EEE16__destroy_vectorC1ERS4_, symObjAddr: 0xA3C8, symBinAddr: 0x10001655C, symSize: 0x34 }
  - { offsetInCU: 0xE430, offset: 0x1BC37, size: 0x8, addend: 0x0, symName: __ZNSt3__16vectorI5AlienNS_9allocatorIS1_EEE16__destroy_vectorclB7v160006Ev, symObjAddr: 0xA3FC, symBinAddr: 0x100016590, symSize: 0x264 }
  - { offsetInCU: 0xE454, offset: 0x1BC5B, size: 0x8, addend: 0x0, symName: __ZNSt3__16vectorI5AlienNS_9allocatorIS1_EEE16__destroy_vectorC2ERS4_, symObjAddr: 0xA660, symBinAddr: 0x1000167F4, symSize: 0x70 }
  - { offsetInCU: 0xE48B, offset: 0x1BC92, size: 0x8, addend: 0x0, symName: __ZNKSt3__16vectorI5AlienNS_9allocatorIS1_EEE17__annotate_deleteB7v160006Ev, symObjAddr: 0xA6D0, symBinAddr: 0x100016864, symSize: 0xCC }
  - { offsetInCU: 0xE4AF, offset: 0x1BCB6, size: 0x8, addend: 0x0, symName: __ZNSt3__16vectorI5AlienNS_9allocatorIS1_EEE7__clearB7v160006Ev, symObjAddr: 0xA7AC, symBinAddr: 0x100016940, symSize: 0x64 }
  - { offsetInCU: 0xE4D4, offset: 0x1BCDB, size: 0x8, addend: 0x0, symName: __ZNSt3__116allocator_traitsINS_9allocatorI5AlienEEE10deallocateB7v160006ERS3_PS2_m, symObjAddr: 0xA810, symBinAddr: 0x1000169A4, symSize: 0x34 }
  - { offsetInCU: 0xE514, offset: 0x1BD1B, size: 0x8, addend: 0x0, symName: __ZNSt3__16vectorI5AlienNS_9allocatorIS1_EEE7__allocB7v160006Ev, symObjAddr: 0xA844, symBinAddr: 0x1000169D8, symSize: 0x28 }
  - { offsetInCU: 0xE538, offset: 0x1BD3F, size: 0x8, addend: 0x0, symName: __ZNKSt3__16vectorI5AlienNS_9allocatorIS1_EEE8capacityB7v160006Ev, symObjAddr: 0xA86C, symBinAddr: 0x100016A00, symSize: 0xBC }
  - { offsetInCU: 0xE55C, offset: 0x1BD63, size: 0x8, addend: 0x0, symName: __ZNKSt3__16vectorI5AlienNS_9allocatorIS1_EEE31__annotate_contiguous_containerEPKvS6_S6_S6_, symObjAddr: 0xA928, symBinAddr: 0x100016ABC, symSize: 0x58 }
  - { offsetInCU: 0xE5BC, offset: 0x1BDC3, size: 0x8, addend: 0x0, symName: __ZNKSt3__16vectorI5AlienNS_9allocatorIS1_EEE4dataB7v160006Ev, symObjAddr: 0xA980, symBinAddr: 0x100016B14, symSize: 0x64 }
  - { offsetInCU: 0xE5E0, offset: 0x1BDE7, size: 0x8, addend: 0x0, symName: __ZNSt3__16vectorI5AlienNS_9allocatorIS1_EEE22__base_destruct_at_endB7v160006EPS1_, symObjAddr: 0xA9F8, symBinAddr: 0x100016B8C, symSize: 0x114 }
  - { offsetInCU: 0xE623, offset: 0x1BE2A, size: 0x8, addend: 0x0, symName: __ZNSt3__116allocator_traitsINS_9allocatorI5AlienEEE7destroyB7v160006IS2_vEEvRS3_PT_, symObjAddr: 0xAB0C, symBinAddr: 0x100016CA0, symSize: 0x2C }
  - { offsetInCU: 0xE65E, offset: 0x1BE65, size: 0x8, addend: 0x0, symName: __ZNSt3__19allocatorI5AlienE7destroyB7v160006EPS1_, symObjAddr: 0xAB38, symBinAddr: 0x100016CCC, symSize: 0x28 }
  - { offsetInCU: 0xE690, offset: 0x1BE97, size: 0x8, addend: 0x0, symName: __ZNSt3__19allocatorI5AlienE10deallocateB7v160006EPS1_m, symObjAddr: 0xAB60, symBinAddr: 0x100016CF4, symSize: 0x4C }
  - { offsetInCU: 0xE6D0, offset: 0x1BED7, size: 0x8, addend: 0x0, symName: __ZNSt3__117__compressed_pairIP5AlienNS_9allocatorIS1_EEE6secondB7v160006Ev, symObjAddr: 0xABAC, symBinAddr: 0x100016D40, symSize: 0x24 }
  - { offsetInCU: 0xE6F5, offset: 0x1BEFC, size: 0x8, addend: 0x0, symName: __ZNSt3__122__compressed_pair_elemINS_9allocatorI5AlienEELi1ELb1EE5__getB7v160006Ev, symObjAddr: 0xABD0, symBinAddr: 0x100016D64, symSize: 0x14 }
  - { offsetInCU: 0xE718, offset: 0x1BF1F, size: 0x8, addend: 0x0, symName: __ZNKSt3__16vectorI5AlienNS_9allocatorIS1_EEE9__end_capB7v160006Ev, symObjAddr: 0xABE4, symBinAddr: 0x100016D78, symSize: 0x28 }
  - { offsetInCU: 0xE73C, offset: 0x1BF43, size: 0x8, addend: 0x0, symName: __ZNKSt3__117__compressed_pairIP5AlienNS_9allocatorIS1_EEE5firstB7v160006Ev, symObjAddr: 0xAC0C, symBinAddr: 0x100016DA0, symSize: 0x24 }
  - { offsetInCU: 0xE761, offset: 0x1BF68, size: 0x8, addend: 0x0, symName: __ZNKSt3__122__compressed_pair_elemIP5AlienLi0ELb0EE5__getB7v160006Ev, symObjAddr: 0xAC30, symBinAddr: 0x100016DC4, symSize: 0x14 }
  - { offsetInCU: 0xE784, offset: 0x1BF8B, size: 0x8, addend: 0x0, symName: __ZNSt3__16vectorI5LaserNS_9allocatorIS1_EEE11__make_iterB7v160006EPS1_, symObjAddr: 0xB754, symBinAddr: 0x100016DD8, symSize: 0x200 }
  - { offsetInCU: 0xE7B9, offset: 0x1BFC0, size: 0x8, addend: 0x0, symName: __ZNSt3__111__wrap_iterIP5LaserEC1B7v160006EPKvS2_, symObjAddr: 0xB954, symBinAddr: 0x100016FD8, symSize: 0x3C }
  - { offsetInCU: 0xE7FD, offset: 0x1C004, size: 0x8, addend: 0x0, symName: __ZNSt3__111__wrap_iterIP5LaserEC2B7v160006EPKvS2_, symObjAddr: 0xB990, symBinAddr: 0x100017014, symSize: 0x74 }
  - { offsetInCU: 0xE841, offset: 0x1C048, size: 0x8, addend: 0x0, symName: __ZNSt3__16vectorI8ObstacleNS_9allocatorIS1_EEE11__make_iterB7v160006EPS1_, symObjAddr: 0xBA04, symBinAddr: 0x100017088, symSize: 0x200 }
  - { offsetInCU: 0xE876, offset: 0x1C07D, size: 0x8, addend: 0x0, symName: __ZNSt3__111__wrap_iterIP8ObstacleEC1B7v160006EPKvS2_, symObjAddr: 0xBC04, symBinAddr: 0x100017288, symSize: 0x3C }
  - { offsetInCU: 0xE8BA, offset: 0x1C0C1, size: 0x8, addend: 0x0, symName: __ZNSt3__111__wrap_iterIP8ObstacleEC2B7v160006EPKvS2_, symObjAddr: 0xBC40, symBinAddr: 0x1000172C4, symSize: 0x74 }
  - { offsetInCU: 0xE8FE, offset: 0x1C105, size: 0x8, addend: 0x0, symName: __ZNSt3__16vectorI5AlienNS_9allocatorIS1_EEE11__make_iterB7v160006EPS1_, symObjAddr: 0xBCB4, symBinAddr: 0x100017338, symSize: 0x200 }
  - { offsetInCU: 0xE933, offset: 0x1C13A, size: 0x8, addend: 0x0, symName: __ZNSt3__111__wrap_iterIP5AlienEC1B7v160006EPKvS2_, symObjAddr: 0xBEB4, symBinAddr: 0x100017538, symSize: 0x3C }
  - { offsetInCU: 0xE977, offset: 0x1C17E, size: 0x8, addend: 0x0, symName: __ZNSt3__111__wrap_iterIP5AlienEC2B7v160006EPKvS2_, symObjAddr: 0xBEF0, symBinAddr: 0x100017574, symSize: 0x74 }
  - { offsetInCU: 0xE9BB, offset: 0x1C1C2, size: 0x8, addend: 0x0, symName: __ZNKSt3__16vectorI5LaserNS_9allocatorIS1_EEE6cbeginB7v160006Ev, symObjAddr: 0xBFAC, symBinAddr: 0x100017630, symSize: 0x234 }
  - { offsetInCU: 0xE9E0, offset: 0x1C1E7, size: 0x8, addend: 0x0, symName: __ZNSt3__16vectorI5LaserNS_9allocatorIS1_EEE17__destruct_at_endB7v160006EPS1_, symObjAddr: 0xC1E0, symBinAddr: 0x100017864, symSize: 0x6C }
  - { offsetInCU: 0xEA23, offset: 0x1C22A, size: 0x8, addend: 0x0, symName: __ZNSt3__16vectorI5LaserNS_9allocatorIS1_EEE27__invalidate_iterators_pastB7v160006EPS1_, symObjAddr: 0xC4B8, symBinAddr: 0x100017B3C, symSize: 0x14 }
  - { offsetInCU: 0xEA58, offset: 0x1C25F, size: 0x8, addend: 0x0, symName: __ZNKSt3__111__wrap_iterIPK5LaserE4baseB7v160006Ev, symObjAddr: 0xC4CC, symBinAddr: 0x100017B50, symSize: 0x60 }
  - { offsetInCU: 0xEA7C, offset: 0x1C283, size: 0x8, addend: 0x0, symName: __ZNKSt3__16vectorI5LaserNS_9allocatorIS1_EEE5beginB7v160006Ev, symObjAddr: 0xC52C, symBinAddr: 0x100017BB0, symSize: 0x268 }
  - { offsetInCU: 0xEAA3, offset: 0x1C2AA, size: 0x8, addend: 0x0, symName: __ZNKSt3__16vectorI5LaserNS_9allocatorIS1_EEE11__make_iterB7v160006EPKS1_, symObjAddr: 0xC794, symBinAddr: 0x100017E18, symSize: 0x200 }
  - { offsetInCU: 0xEAD8, offset: 0x1C2DF, size: 0x8, addend: 0x0, symName: __ZNSt3__111__wrap_iterIPK5LaserEC1B7v160006EPKvS3_, symObjAddr: 0xC994, symBinAddr: 0x100018018, symSize: 0x3C }
  - { offsetInCU: 0xEB1C, offset: 0x1C323, size: 0x8, addend: 0x0, symName: __ZNSt3__111__wrap_iterIPK5LaserEC2B7v160006EPKvS3_, symObjAddr: 0xC9D0, symBinAddr: 0x100018054, symSize: 0x74 }
  - { offsetInCU: 0xEB83, offset: 0x1C38A, size: 0x8, addend: 0x0, symName: __ZNKSt3__114__move_trivialclB7v160006I5LaserS2_Li0EEENS_4pairIPT_PT0_EES5_S5_S7_, symObjAddr: 0xD858, symBinAddr: 0x100018E14, symSize: 0x230 }
  - { offsetInCU: 0xEBF2, offset: 0x1C3F9, size: 0x8, addend: 0x0, symName: __ZNSt3__14pairIP5LaserS2_EC1B7v160006IRS2_S2_LPv0EEEOT_OT0_, symObjAddr: 0xE2F0, symBinAddr: 0x1000198AC, symSize: 0x3C }
  - { offsetInCU: 0xEC4E, offset: 0x1C455, size: 0x8, addend: 0x0, symName: __ZNSt3__14pairIP5LaserS2_EC2B7v160006IRS2_S2_LPv0EEEOT_OT0_, symObjAddr: 0xE32C, symBinAddr: 0x1000198E8, symSize: 0x138 }
  - { offsetInCU: 0xECAB, offset: 0x1C4B2, size: 0x8, addend: 0x0, symName: __ZNSt3__118__unwrap_iter_implIP5LaserLb1EE8__unwrapB7v160006ES2_, symObjAddr: 0xE464, symBinAddr: 0x100019A20, symSize: 0x24 }
  - { offsetInCU: 0xECCC, offset: 0x1C4D3, size: 0x8, addend: 0x0, symName: __ZNSt3__14pairIP5LaserS2_EC1B7v160006IS2_S2_LPv0EEEOT_OT0_, symObjAddr: 0xE488, symBinAddr: 0x100019A44, symSize: 0x3C }
  - { offsetInCU: 0xED28, offset: 0x1C52F, size: 0x8, addend: 0x0, symName: __ZNSt3__14pairIP5LaserS2_EC2B7v160006IS2_S2_LPv0EEEOT_OT0_, symObjAddr: 0xE4C4, symBinAddr: 0x100019A80, symSize: 0x138 }
  - { offsetInCU: 0xED85, offset: 0x1C58C, size: 0x8, addend: 0x0, symName: __ZNSt3__118__unwrap_iter_implIP5LaserLb1EE8__rewrapB7v160006ES2_S2_, symObjAddr: 0xE5FC, symBinAddr: 0x100019BB8, symSize: 0x50 }
  - { offsetInCU: 0xEDB4, offset: 0x1C5BB, size: 0x8, addend: 0x0, symName: __ZNSt3__111__wrap_iterIPK5LaserEC2B7v160006IPS1_EERKNS0_IT_EEPNS_9enable_ifIXsr14is_convertibleIS7_S3_EE5valueEvE4typeE, symObjAddr: 0xE64C, symBinAddr: 0x100019C08, symSize: 0x84 }
  - { offsetInCU: 0xEE2F, offset: 0x1C636, size: 0x8, addend: 0x0, symName: __ZNSt3__16vectorI8ObstacleNS_9allocatorIS1_EEE9__end_capB7v160006Ev, symObjAddr: 0x14CD0, symBinAddr: 0x100019C8C, symSize: 0x28 }
  - { offsetInCU: 0xEE58, offset: 0x1C65F, size: 0x8, addend: 0x0, symName: __ZNSt3__16vectorI8ObstacleNS_9allocatorIS1_EEE22__construct_one_at_endB7v160006IJS1_EEEvDpOT_, symObjAddr: 0x14CF8, symBinAddr: 0x100019CB4, symSize: 0x36C }
  - { offsetInCU: 0xEEAB, offset: 0x1C6B2, size: 0x8, addend: 0x0, symName: __ZNSt3__16vectorI8ObstacleNS_9allocatorIS1_EEE21__push_back_slow_pathIS1_EEvOT_, symObjAddr: 0x15064, symBinAddr: 0x10001A020, symSize: 0x3C0 }
  - { offsetInCU: 0xEF0E, offset: 0x1C715, size: 0x8, addend: 0x0, symName: __ZNSt3__117__compressed_pairIP8ObstacleNS_9allocatorIS1_EEE5firstB7v160006Ev, symObjAddr: 0x15424, symBinAddr: 0x10001A3E0, symSize: 0x24 }
  - { offsetInCU: 0xEF33, offset: 0x1C73A, size: 0x8, addend: 0x0, symName: __ZNSt3__122__compressed_pair_elemIP8ObstacleLi0ELb0EE5__getB7v160006Ev, symObjAddr: 0x15448, symBinAddr: 0x10001A404, symSize: 0x14 }
  - { offsetInCU: 0xEF6F, offset: 0x1C776, size: 0x8, addend: 0x0, symName: __ZNSt3__16vectorI8ObstacleNS_9allocatorIS1_EEE21_ConstructTransactionC1B7v160006ERS4_m, symObjAddr: 0x1545C, symBinAddr: 0x10001A418, symSize: 0x3C }
  - { offsetInCU: 0xEFB6, offset: 0x1C7BD, size: 0x8, addend: 0x0, symName: __ZNSt3__116allocator_traitsINS_9allocatorI8ObstacleEEE9constructB7v160006IS2_JS2_EvEEvRS3_PT_DpOT0_, symObjAddr: 0x15498, symBinAddr: 0x10001A454, symSize: 0x34 }
  - { offsetInCU: 0xF00B, offset: 0x1C812, size: 0x8, addend: 0x0, symName: __ZNSt3__16vectorI8ObstacleNS_9allocatorIS1_EEE21_ConstructTransactionD1B7v160006Ev, symObjAddr: 0x154CC, symBinAddr: 0x10001A488, symSize: 0x2C }
  - { offsetInCU: 0xF033, offset: 0x1C83A, size: 0x8, addend: 0x0, symName: __ZNSt3__16vectorI8ObstacleNS_9allocatorIS1_EEE21_ConstructTransactionC2B7v160006ERS4_m, symObjAddr: 0x154F8, symBinAddr: 0x10001A4B4, symSize: 0x1D0 }
  - { offsetInCU: 0xF079, offset: 0x1C880, size: 0x8, addend: 0x0, symName: __ZNKSt3__16vectorI8ObstacleNS_9allocatorIS1_EEE19__annotate_increaseB7v160006Em, symObjAddr: 0x156C8, symBinAddr: 0x10001A684, symSize: 0xD8 }
  - { offsetInCU: 0xF0AC, offset: 0x1C8B3, size: 0x8, addend: 0x0, symName: __ZNSt3__19allocatorI8ObstacleE9constructB7v160006IS1_JS1_EEEvPT_DpOT0_, symObjAddr: 0x157A0, symBinAddr: 0x10001A75C, symSize: 0x30 }
  - { offsetInCU: 0xF100, offset: 0x1C907, size: 0x8, addend: 0x0, symName: __ZN8ObstacleC1EOS_, symObjAddr: 0x157D0, symBinAddr: 0x10001A78C, symSize: 0x34 }
  - { offsetInCU: 0xF133, offset: 0x1C93A, size: 0x8, addend: 0x0, symName: __ZN8ObstacleC2EOS_, symObjAddr: 0x15804, symBinAddr: 0x10001A7C0, symSize: 0x4C }
  - { offsetInCU: 0xF167, offset: 0x1C96E, size: 0x8, addend: 0x0, symName: __ZNSt3__16vectorI5BlockNS_9allocatorIS1_EEEC1B7v160006EOS4_, symObjAddr: 0x15850, symBinAddr: 0x10001A80C, symSize: 0x34 }
  - { offsetInCU: 0xF1A0, offset: 0x1C9A7, size: 0x8, addend: 0x0, symName: __ZNSt3__16vectorI5BlockNS_9allocatorIS1_EEEC2B7v160006EOS4_, symObjAddr: 0x15884, symBinAddr: 0x10001A840, symSize: 0x510 }
  - { offsetInCU: 0xF1DF, offset: 0x1C9E6, size: 0x8, addend: 0x0, symName: __ZNSt3__117__compressed_pairIP5BlockNS_9allocatorIS1_EEEC1B7v160006IDnS4_EEOT_OT0_, symObjAddr: 0x15D94, symBinAddr: 0x10001AD50, symSize: 0x3C }
  - { offsetInCU: 0xF235, offset: 0x1CA3C, size: 0x8, addend: 0x0, symName: __ZNSt3__16vectorI5BlockNS_9allocatorIS1_EEE9__end_capB7v160006Ev, symObjAddr: 0x15DF4, symBinAddr: 0x10001ADB0, symSize: 0x28 }
  - { offsetInCU: 0xF259, offset: 0x1CA60, size: 0x8, addend: 0x0, symName: __ZNSt3__117__compressed_pairIP5BlockNS_9allocatorIS1_EEEC2B7v160006IDnS4_EEOT_OT0_, symObjAddr: 0x15E1C, symBinAddr: 0x10001ADD8, symSize: 0x44 }
  - { offsetInCU: 0xF2AF, offset: 0x1CAB6, size: 0x8, addend: 0x0, symName: __ZNSt3__122__compressed_pair_elemIP5BlockLi0ELb0EEC2B7v160006IDnvEEOT_, symObjAddr: 0x15E60, symBinAddr: 0x10001AE1C, symSize: 0x64 }
  - { offsetInCU: 0xF2F0, offset: 0x1CAF7, size: 0x8, addend: 0x0, symName: __ZNSt3__122__compressed_pair_elemINS_9allocatorI5BlockEELi1ELb1EEC2B7v160006IS3_vEEOT_, symObjAddr: 0x15EC4, symBinAddr: 0x10001AE80, symSize: 0x18 }
  - { offsetInCU: 0xF32F, offset: 0x1CB36, size: 0x8, addend: 0x0, symName: __ZNSt3__117__compressed_pairIP5BlockNS_9allocatorIS1_EEE5firstB7v160006Ev, symObjAddr: 0x15EDC, symBinAddr: 0x10001AE98, symSize: 0x24 }
  - { offsetInCU: 0xF354, offset: 0x1CB5B, size: 0x8, addend: 0x0, symName: __ZNSt3__122__compressed_pair_elemIP5BlockLi0ELb0EE5__getB7v160006Ev, symObjAddr: 0x15F00, symBinAddr: 0x10001AEBC, symSize: 0x14 }
  - { offsetInCU: 0xF377, offset: 0x1CB7E, size: 0x8, addend: 0x0, symName: __ZNSt3__16vectorI8ObstacleNS_9allocatorIS1_EEE21_ConstructTransactionD2B7v160006Ev, symObjAddr: 0x15F14, symBinAddr: 0x10001AED0, symSize: 0x278 }
  - { offsetInCU: 0xF39F, offset: 0x1CBA6, size: 0x8, addend: 0x0, symName: __ZNKSt3__16vectorI8ObstacleNS_9allocatorIS1_EEE17__annotate_shrinkB7v160006Em, symObjAddr: 0x1618C, symBinAddr: 0x10001B148, symSize: 0xC8 }
  - { offsetInCU: 0xF3D2, offset: 0x1CBD9, size: 0x8, addend: 0x0, symName: __ZNKSt3__16vectorI8ObstacleNS_9allocatorIS1_EEE11__recommendB7v160006Em, symObjAddr: 0x16254, symBinAddr: 0x10001B210, symSize: 0x384 }
  - { offsetInCU: 0xF42D, offset: 0x1CC34, size: 0x8, addend: 0x0, symName: __ZNSt3__114__split_bufferI8ObstacleRNS_9allocatorIS1_EEEC1EmmS4_, symObjAddr: 0x165D8, symBinAddr: 0x10001B594, symSize: 0x44 }
  - { offsetInCU: 0xF481, offset: 0x1CC88, size: 0x8, addend: 0x0, symName: __ZNSt3__114__split_bufferI8ObstacleRNS_9allocatorIS1_EEED1Ev, symObjAddr: 0x16B90, symBinAddr: 0x10001BB4C, symSize: 0x2C }
  - { offsetInCU: 0xF4AA, offset: 0x1CCB1, size: 0x8, addend: 0x0, symName: __ZNKSt3__16vectorI8ObstacleNS_9allocatorIS1_EEE8max_sizeEv, symObjAddr: 0x16BBC, symBinAddr: 0x10001BB78, symSize: 0x2FC }
  - { offsetInCU: 0xF4D1, offset: 0x1CCD8, size: 0x8, addend: 0x0, symName: __ZNKSt3__16vectorI8ObstacleNS_9allocatorIS1_EEE20__throw_length_errorB7v160006Ev, symObjAddr: 0x16EB8, symBinAddr: 0x10001BE74, symSize: 0x20 }
  - { offsetInCU: 0xF500, offset: 0x1CD07, size: 0x8, addend: 0x0, symName: __ZNSt3__116allocator_traitsINS_9allocatorI8ObstacleEEE8max_sizeB7v160006IS3_vEEmRKS3_, symObjAddr: 0x16ED8, symBinAddr: 0x10001BE94, symSize: 0x24 }
  - { offsetInCU: 0xF52C, offset: 0x1CD33, size: 0x8, addend: 0x0, symName: __ZNKSt3__16vectorI8ObstacleNS_9allocatorIS1_EEE7__allocB7v160006Ev, symObjAddr: 0x16EFC, symBinAddr: 0x10001BEB8, symSize: 0x28 }
  - { offsetInCU: 0xF551, offset: 0x1CD58, size: 0x8, addend: 0x0, symName: __ZNKSt3__19allocatorI8ObstacleE8max_sizeB7v160006Ev, symObjAddr: 0x16F24, symBinAddr: 0x10001BEE0, symSize: 0x14 }
  - { offsetInCU: 0xF574, offset: 0x1CD7B, size: 0x8, addend: 0x0, symName: __ZNKSt3__117__compressed_pairIP8ObstacleNS_9allocatorIS1_EEE6secondB7v160006Ev, symObjAddr: 0x16F38, symBinAddr: 0x10001BEF4, symSize: 0x24 }
  - { offsetInCU: 0xF599, offset: 0x1CDA0, size: 0x8, addend: 0x0, symName: __ZNKSt3__122__compressed_pair_elemINS_9allocatorI8ObstacleEELi1ELb1EE5__getB7v160006Ev, symObjAddr: 0x16F5C, symBinAddr: 0x10001BF18, symSize: 0x14 }
  - { offsetInCU: 0xF5BD, offset: 0x1CDC4, size: 0x8, addend: 0x0, symName: __ZNSt3__114__split_bufferI8ObstacleRNS_9allocatorIS1_EEEC2EmmS4_, symObjAddr: 0x16F70, symBinAddr: 0x10001BF2C, symSize: 0x520 }
  - { offsetInCU: 0xF635, offset: 0x1CE3C, size: 0x8, addend: 0x0, symName: __ZNSt3__117__compressed_pairIP8ObstacleRNS_9allocatorIS1_EEEC1B7v160006IDnS5_EEOT_OT0_, symObjAddr: 0x17490, symBinAddr: 0x10001C44C, symSize: 0x3C }
  - { offsetInCU: 0xF68B, offset: 0x1CE92, size: 0x8, addend: 0x0, symName: __ZNSt3__114__split_bufferI8ObstacleRNS_9allocatorIS1_EEE7__allocB7v160006Ev, symObjAddr: 0x17758, symBinAddr: 0x10001C714, symSize: 0x28 }
  - { offsetInCU: 0xF6AF, offset: 0x1CEB6, size: 0x8, addend: 0x0, symName: __ZNSt3__114__split_bufferI8ObstacleRNS_9allocatorIS1_EEE9__end_capB7v160006Ev, symObjAddr: 0x17780, symBinAddr: 0x10001C73C, symSize: 0x28 }
  - { offsetInCU: 0xF6D3, offset: 0x1CEDA, size: 0x8, addend: 0x0, symName: __ZNSt3__117__compressed_pairIP8ObstacleRNS_9allocatorIS1_EEEC2B7v160006IDnS5_EEOT_OT0_, symObjAddr: 0x177A8, symBinAddr: 0x10001C764, symSize: 0x48 }
  - { offsetInCU: 0xF729, offset: 0x1CF30, size: 0x8, addend: 0x0, symName: __ZNSt3__122__compressed_pair_elemIRNS_9allocatorI8ObstacleEELi1ELb0EEC2B7v160006IS4_vEEOT_, symObjAddr: 0x177F0, symBinAddr: 0x10001C7AC, symSize: 0x70 }
  - { offsetInCU: 0xF769, offset: 0x1CF70, size: 0x8, addend: 0x0, symName: __ZNSt3__19allocatorI8ObstacleE8allocateB7v160006Em, symObjAddr: 0x17860, symBinAddr: 0x10001C81C, symSize: 0x5C }
  - { offsetInCU: 0xF79B, offset: 0x1CFA2, size: 0x8, addend: 0x0, symName: __ZNSt3__117__compressed_pairIP8ObstacleRNS_9allocatorIS1_EEE6secondB7v160006Ev, symObjAddr: 0x178BC, symBinAddr: 0x10001C878, symSize: 0x28 }
  - { offsetInCU: 0xF7BF, offset: 0x1CFC6, size: 0x8, addend: 0x0, symName: __ZNSt3__122__compressed_pair_elemIRNS_9allocatorI8ObstacleEELi1ELb0EE5__getB7v160006Ev, symObjAddr: 0x178E4, symBinAddr: 0x10001C8A0, symSize: 0x60 }
  - { offsetInCU: 0xF7E3, offset: 0x1CFEA, size: 0x8, addend: 0x0, symName: __ZNSt3__117__compressed_pairIP8ObstacleRNS_9allocatorIS1_EEE5firstB7v160006Ev, symObjAddr: 0x17944, symBinAddr: 0x10001C900, symSize: 0x24 }
  - { offsetInCU: 0xF807, offset: 0x1D00E, size: 0x8, addend: 0x0, symName: __ZNSt3__116reverse_iteratorIP8ObstacleEC1B7v160006ES2_, symObjAddr: 0x17EAC, symBinAddr: 0x10001CE68, symSize: 0x34 }
  - { offsetInCU: 0xF83D, offset: 0x1D044, size: 0x8, addend: 0x0, symName: __ZNKSt3__116reverse_iteratorIP8ObstacleE4baseB7v160006Ev, symObjAddr: 0x17EE0, symBinAddr: 0x10001CE9C, symSize: 0x64 }
  - { offsetInCU: 0xF861, offset: 0x1D068, size: 0x8, addend: 0x0, symName: __ZNKSt3__16vectorI8ObstacleNS_9allocatorIS1_EEE14__annotate_newB7v160006Em, symObjAddr: 0x18078, symBinAddr: 0x10001D034, symSize: 0xC0 }
  - { offsetInCU: 0xF894, offset: 0x1D09B, size: 0x8, addend: 0x0, symName: __ZNSt3__129_AllocatorDestroyRangeReverseINS_9allocatorI8ObstacleEENS_16reverse_iteratorIPS2_EEEC1B7v160006ERS3_RS6_S9_, symObjAddr: 0x18340, symBinAddr: 0x10001D2FC, symSize: 0x44 }
  - { offsetInCU: 0xF8E9, offset: 0x1D0F0, size: 0x8, addend: 0x0, symName: __ZNKSt3__116reverse_iteratorIP8ObstacleEdeB7v160006Ev, symObjAddr: 0x183F0, symBinAddr: 0x10001D3AC, symSize: 0x74 }
  - { offsetInCU: 0xF91B, offset: 0x1D122, size: 0x8, addend: 0x0, symName: __ZNSt3__116reverse_iteratorIP8ObstacleEppB7v160006Ev, symObjAddr: 0x18464, symBinAddr: 0x10001D420, symSize: 0x6C }
  - { offsetInCU: 0xF93F, offset: 0x1D146, size: 0x8, addend: 0x0, symName: __ZNSt3__128__exception_guard_exceptionsINS_29_AllocatorDestroyRangeReverseINS_9allocatorI8ObstacleEENS_16reverse_iteratorIPS3_EEEEE10__completeB7v160006Ev, symObjAddr: 0x184D0, symBinAddr: 0x10001D48C, symSize: 0x8C }
  - { offsetInCU: 0xF963, offset: 0x1D16A, size: 0x8, addend: 0x0, symName: __ZNSt3__128__exception_guard_exceptionsINS_29_AllocatorDestroyRangeReverseINS_9allocatorI8ObstacleEENS_16reverse_iteratorIPS3_EEEEED1B7v160006Ev, symObjAddr: 0x1855C, symBinAddr: 0x10001D518, symSize: 0x2C }
  - { offsetInCU: 0xF98B, offset: 0x1D192, size: 0x8, addend: 0x0, symName: __ZNSt3__128__exception_guard_exceptionsINS_29_AllocatorDestroyRangeReverseINS_9allocatorI8ObstacleEENS_16reverse_iteratorIPS3_EEEEEC1B7v160006ES8_, symObjAddr: 0x18588, symBinAddr: 0x10001D544, symSize: 0x34 }
  - { offsetInCU: 0xF9C2, offset: 0x1D1C9, size: 0x8, addend: 0x0, symName: __ZNSt3__128__exception_guard_exceptionsINS_29_AllocatorDestroyRangeReverseINS_9allocatorI8ObstacleEENS_16reverse_iteratorIPS3_EEEEEC2B7v160006ES8_, symObjAddr: 0x185BC, symBinAddr: 0x10001D578, symSize: 0xA4 }
  - { offsetInCU: 0xF9F9, offset: 0x1D200, size: 0x8, addend: 0x0, symName: __ZNSt3__129_AllocatorDestroyRangeReverseINS_9allocatorI8ObstacleEENS_16reverse_iteratorIPS2_EEEC2B7v160006ERS3_RS6_S9_, symObjAddr: 0x18660, symBinAddr: 0x10001D61C, symSize: 0x104 }
  - { offsetInCU: 0xFA54, offset: 0x1D25B, size: 0x8, addend: 0x0, symName: __ZNSt3__119__to_address_helperINS_16reverse_iteratorIP8ObstacleEEvE6__callB7v160006ERKS4_, symObjAddr: 0x18764, symBinAddr: 0x10001D720, symSize: 0x44 }
  - { offsetInCU: 0xFA75, offset: 0x1D27C, size: 0x8, addend: 0x0, symName: __ZNKSt3__116reverse_iteratorIP8ObstacleEptB7v160006Ev, symObjAddr: 0x187A8, symBinAddr: 0x10001D764, symSize: 0x24 }
  - { offsetInCU: 0xFA99, offset: 0x1D2A0, size: 0x8, addend: 0x0, symName: __ZNSt3__128__exception_guard_exceptionsINS_29_AllocatorDestroyRangeReverseINS_9allocatorI8ObstacleEENS_16reverse_iteratorIPS3_EEEEED2B7v160006Ev, symObjAddr: 0x187CC, symBinAddr: 0x10001D788, symSize: 0xBC }
  - { offsetInCU: 0xFAC1, offset: 0x1D2C8, size: 0x8, addend: 0x0, symName: __ZNKSt3__129_AllocatorDestroyRangeReverseINS_9allocatorI8ObstacleEENS_16reverse_iteratorIPS2_EEEclB7v160006Ev, symObjAddr: 0x18888, symBinAddr: 0x10001D844, symSize: 0x3A8 }
  - { offsetInCU: 0xFAE6, offset: 0x1D2ED, size: 0x8, addend: 0x0, symName: __ZNSt3__116reverse_iteratorINS0_IP8ObstacleEEEC1B7v160006ES3_, symObjAddr: 0x18CA0, symBinAddr: 0x10001DC5C, symSize: 0x248 }
  - { offsetInCU: 0xFB21, offset: 0x1D328, size: 0x8, addend: 0x0, symName: __ZNSt3__116reverse_iteratorINS0_IP8ObstacleEEEppB7v160006Ev, symObjAddr: 0x191D8, symBinAddr: 0x10001E194, symSize: 0x30 }
  - { offsetInCU: 0xFB45, offset: 0x1D34C, size: 0x8, addend: 0x0, symName: __ZNKSt3__116reverse_iteratorINS0_IP8ObstacleEEE4baseB7v160006Ev, symObjAddr: 0x19208, symBinAddr: 0x10001E1C4, symSize: 0x20C }
  - { offsetInCU: 0xFB70, offset: 0x1D377, size: 0x8, addend: 0x0, symName: __ZNSt3__119__to_address_helperINS_16reverse_iteratorINS1_IP8ObstacleEEEEvE6__callB7v160006ERKS5_, symObjAddr: 0x19414, symBinAddr: 0x10001E3D0, symSize: 0x44 }
  - { offsetInCU: 0xFB91, offset: 0x1D398, size: 0x8, addend: 0x0, symName: __ZNKSt3__116reverse_iteratorINS0_IP8ObstacleEEEptB7v160006Ev, symObjAddr: 0x19458, symBinAddr: 0x10001E414, symSize: 0x24 }
  - { offsetInCU: 0xFBB5, offset: 0x1D3BC, size: 0x8, addend: 0x0, symName: __ZNKSt3__116reverse_iteratorINS0_IP8ObstacleEEEdeB7v160006Ev, symObjAddr: 0x1947C, symBinAddr: 0x10001E438, symSize: 0x1EC }
  - { offsetInCU: 0xFBEC, offset: 0x1D3F3, size: 0x8, addend: 0x0, symName: __ZNSt3__116reverse_iteratorIP8ObstacleEmmB7v160006Ev, symObjAddr: 0x19668, symBinAddr: 0x10001E624, symSize: 0x6C }
  - { offsetInCU: 0xFC10, offset: 0x1D417, size: 0x8, addend: 0x0, symName: __ZNSt3__116reverse_iteratorINS0_IP8ObstacleEEEC2B7v160006ES3_, symObjAddr: 0x196D4, symBinAddr: 0x10001E690, symSize: 0x22C }
  - { offsetInCU: 0xFC4B, offset: 0x1D452, size: 0x8, addend: 0x0, symName: __ZNSt3__116reverse_iteratorIP8ObstacleEC2B7v160006ES2_, symObjAddr: 0x19900, symBinAddr: 0x10001E8BC, symSize: 0xB8 }
  - { offsetInCU: 0xFC82, offset: 0x1D489, size: 0x8, addend: 0x0, symName: __ZNSt3__114__split_bufferI8ObstacleRNS_9allocatorIS1_EEED2Ev, symObjAddr: 0x199B8, symBinAddr: 0x10001E974, symSize: 0x104 }
  - { offsetInCU: 0xFCAB, offset: 0x1D4B2, size: 0x8, addend: 0x0, symName: __ZNSt3__114__split_bufferI8ObstacleRNS_9allocatorIS1_EEE5clearB7v160006Ev, symObjAddr: 0x19ABC, symBinAddr: 0x10001EA78, symSize: 0x68 }
  - { offsetInCU: 0xFCCF, offset: 0x1D4D6, size: 0x8, addend: 0x0, symName: __ZNKSt3__114__split_bufferI8ObstacleRNS_9allocatorIS1_EEE8capacityB7v160006Ev, symObjAddr: 0x19B24, symBinAddr: 0x10001EAE0, symSize: 0xBC }
  - { offsetInCU: 0xFCF3, offset: 0x1D4FA, size: 0x8, addend: 0x0, symName: __ZNSt3__114__split_bufferI8ObstacleRNS_9allocatorIS1_EEE17__destruct_at_endB7v160006EPS1_, symObjAddr: 0x19BE0, symBinAddr: 0x10001EB9C, symSize: 0x2C }
  - { offsetInCU: 0xFD25, offset: 0x1D52C, size: 0x8, addend: 0x0, symName: __ZNSt3__114__split_bufferI8ObstacleRNS_9allocatorIS1_EEE17__destruct_at_endB7v160006EPS1_NS_17integral_constantIbLb0EEE, symObjAddr: 0x19C0C, symBinAddr: 0x10001EBC8, symSize: 0x10C }
  - { offsetInCU: 0xFD63, offset: 0x1D56A, size: 0x8, addend: 0x0, symName: __ZNKSt3__114__split_bufferI8ObstacleRNS_9allocatorIS1_EEE9__end_capB7v160006Ev, symObjAddr: 0x19D18, symBinAddr: 0x10001ECD4, symSize: 0x28 }
  - { offsetInCU: 0xFD87, offset: 0x1D58E, size: 0x8, addend: 0x0, symName: __ZNKSt3__117__compressed_pairIP8ObstacleRNS_9allocatorIS1_EEE5firstB7v160006Ev, symObjAddr: 0x19D40, symBinAddr: 0x10001ECFC, symSize: 0x24 }
  - { offsetInCU: 0xFDAB, offset: 0x1D5B2, size: 0x8, addend: 0x0, symName: __ZNSt3__16vectorI5AlienNS_9allocatorIS1_EEE9__end_capB7v160006Ev, symObjAddr: 0x19D64, symBinAddr: 0x10001ED20, symSize: 0x28 }
  - { offsetInCU: 0xFDD4, offset: 0x1D5DB, size: 0x8, addend: 0x0, symName: __ZNSt3__16vectorI5AlienNS_9allocatorIS1_EEE22__construct_one_at_endB7v160006IJS1_EEEvDpOT_, symObjAddr: 0x19D8C, symBinAddr: 0x10001ED48, symSize: 0x36C }
  - { offsetInCU: 0xFE27, offset: 0x1D62E, size: 0x8, addend: 0x0, symName: __ZNSt3__16vectorI5AlienNS_9allocatorIS1_EEE21__push_back_slow_pathIS1_EEvOT_, symObjAddr: 0x1A0F8, symBinAddr: 0x10001F0B4, symSize: 0x3C0 }
  - { offsetInCU: 0xFE8A, offset: 0x1D691, size: 0x8, addend: 0x0, symName: __ZNSt3__117__compressed_pairIP5AlienNS_9allocatorIS1_EEE5firstB7v160006Ev, symObjAddr: 0x1A4B8, symBinAddr: 0x10001F474, symSize: 0x24 }
  - { offsetInCU: 0xFEAF, offset: 0x1D6B6, size: 0x8, addend: 0x0, symName: __ZNSt3__122__compressed_pair_elemIP5AlienLi0ELb0EE5__getB7v160006Ev, symObjAddr: 0x1A4DC, symBinAddr: 0x10001F498, symSize: 0x14 }
  - { offsetInCU: 0xFEEB, offset: 0x1D6F2, size: 0x8, addend: 0x0, symName: __ZNSt3__16vectorI5AlienNS_9allocatorIS1_EEE21_ConstructTransactionC1B7v160006ERS4_m, symObjAddr: 0x1A4F0, symBinAddr: 0x10001F4AC, symSize: 0x3C }
  - { offsetInCU: 0xFF32, offset: 0x1D739, size: 0x8, addend: 0x0, symName: __ZNSt3__116allocator_traitsINS_9allocatorI5AlienEEE9constructB7v160006IS2_JS2_EvEEvRS3_PT_DpOT0_, symObjAddr: 0x1A52C, symBinAddr: 0x10001F4E8, symSize: 0x34 }
  - { offsetInCU: 0xFF87, offset: 0x1D78E, size: 0x8, addend: 0x0, symName: __ZNSt3__16vectorI5AlienNS_9allocatorIS1_EEE21_ConstructTransactionD1B7v160006Ev, symObjAddr: 0x1A560, symBinAddr: 0x10001F51C, symSize: 0x2C }
  - { offsetInCU: 0xFFAF, offset: 0x1D7B6, size: 0x8, addend: 0x0, symName: __ZNSt3__16vectorI5AlienNS_9allocatorIS1_EEE21_ConstructTransactionC2B7v160006ERS4_m, symObjAddr: 0x1A58C, symBinAddr: 0x10001F548, symSize: 0x1D0 }
  - { offsetInCU: 0xFFF5, offset: 0x1D7FC, size: 0x8, addend: 0x0, symName: __ZNKSt3__16vectorI5AlienNS_9allocatorIS1_EEE19__annotate_increaseB7v160006Em, symObjAddr: 0x1A75C, symBinAddr: 0x10001F718, symSize: 0xD8 }
  - { offsetInCU: 0x10028, offset: 0x1D82F, size: 0x8, addend: 0x0, symName: __ZNSt3__19allocatorI5AlienE9constructB7v160006IS1_JS1_EEEvPT_DpOT0_, symObjAddr: 0x1A834, symBinAddr: 0x10001F7F0, symSize: 0x34 }
  - { offsetInCU: 0x1007C, offset: 0x1D883, size: 0x8, addend: 0x0, symName: __ZNSt3__16vectorI5AlienNS_9allocatorIS1_EEE21_ConstructTransactionD2B7v160006Ev, symObjAddr: 0x1A868, symBinAddr: 0x10001F824, symSize: 0x278 }
  - { offsetInCU: 0x100A4, offset: 0x1D8AB, size: 0x8, addend: 0x0, symName: __ZNKSt3__16vectorI5AlienNS_9allocatorIS1_EEE17__annotate_shrinkB7v160006Em, symObjAddr: 0x1AAE0, symBinAddr: 0x10001FA9C, symSize: 0xC8 }
  - { offsetInCU: 0x100D7, offset: 0x1D8DE, size: 0x8, addend: 0x0, symName: __ZNKSt3__16vectorI5AlienNS_9allocatorIS1_EEE11__recommendB7v160006Em, symObjAddr: 0x1ABA8, symBinAddr: 0x10001FB64, symSize: 0x384 }
  - { offsetInCU: 0x10132, offset: 0x1D939, size: 0x8, addend: 0x0, symName: __ZNSt3__114__split_bufferI5AlienRNS_9allocatorIS1_EEEC1EmmS4_, symObjAddr: 0x1AF2C, symBinAddr: 0x10001FEE8, symSize: 0x44 }
  - { offsetInCU: 0x10186, offset: 0x1D98D, size: 0x8, addend: 0x0, symName: __ZNSt3__114__split_bufferI5AlienRNS_9allocatorIS1_EEED1Ev, symObjAddr: 0x1B4E4, symBinAddr: 0x1000204A0, symSize: 0x2C }
  - { offsetInCU: 0x101AF, offset: 0x1D9B6, size: 0x8, addend: 0x0, symName: __ZNKSt3__16vectorI5AlienNS_9allocatorIS1_EEE8max_sizeEv, symObjAddr: 0x1B510, symBinAddr: 0x1000204CC, symSize: 0x2FC }
  - { offsetInCU: 0x101D6, offset: 0x1D9DD, size: 0x8, addend: 0x0, symName: __ZNKSt3__16vectorI5AlienNS_9allocatorIS1_EEE20__throw_length_errorB7v160006Ev, symObjAddr: 0x1B80C, symBinAddr: 0x1000207C8, symSize: 0x20 }
  - { offsetInCU: 0x10205, offset: 0x1DA0C, size: 0x8, addend: 0x0, symName: __ZNSt3__116allocator_traitsINS_9allocatorI5AlienEEE8max_sizeB7v160006IS3_vEEmRKS3_, symObjAddr: 0x1B82C, symBinAddr: 0x1000207E8, symSize: 0x24 }
  - { offsetInCU: 0x10231, offset: 0x1DA38, size: 0x8, addend: 0x0, symName: __ZNKSt3__16vectorI5AlienNS_9allocatorIS1_EEE7__allocB7v160006Ev, symObjAddr: 0x1B850, symBinAddr: 0x10002080C, symSize: 0x28 }
  - { offsetInCU: 0x10256, offset: 0x1DA5D, size: 0x8, addend: 0x0, symName: __ZNKSt3__19allocatorI5AlienE8max_sizeB7v160006Ev, symObjAddr: 0x1B878, symBinAddr: 0x100020834, symSize: 0x14 }
  - { offsetInCU: 0x10279, offset: 0x1DA80, size: 0x8, addend: 0x0, symName: __ZNKSt3__117__compressed_pairIP5AlienNS_9allocatorIS1_EEE6secondB7v160006Ev, symObjAddr: 0x1B88C, symBinAddr: 0x100020848, symSize: 0x24 }
  - { offsetInCU: 0x1029E, offset: 0x1DAA5, size: 0x8, addend: 0x0, symName: __ZNKSt3__122__compressed_pair_elemINS_9allocatorI5AlienEELi1ELb1EE5__getB7v160006Ev, symObjAddr: 0x1B8B0, symBinAddr: 0x10002086C, symSize: 0x14 }
  - { offsetInCU: 0x102C2, offset: 0x1DAC9, size: 0x8, addend: 0x0, symName: __ZNSt3__114__split_bufferI5AlienRNS_9allocatorIS1_EEEC2EmmS4_, symObjAddr: 0x1B8C4, symBinAddr: 0x100020880, symSize: 0x520 }
  - { offsetInCU: 0x1033A, offset: 0x1DB41, size: 0x8, addend: 0x0, symName: __ZNSt3__117__compressed_pairIP5AlienRNS_9allocatorIS1_EEEC1B7v160006IDnS5_EEOT_OT0_, symObjAddr: 0x1BDE4, symBinAddr: 0x100020DA0, symSize: 0x3C }
  - { offsetInCU: 0x10390, offset: 0x1DB97, size: 0x8, addend: 0x0, symName: __ZNSt3__114__split_bufferI5AlienRNS_9allocatorIS1_EEE7__allocB7v160006Ev, symObjAddr: 0x1C0AC, symBinAddr: 0x100021068, symSize: 0x28 }
  - { offsetInCU: 0x103B4, offset: 0x1DBBB, size: 0x8, addend: 0x0, symName: __ZNSt3__114__split_bufferI5AlienRNS_9allocatorIS1_EEE9__end_capB7v160006Ev, symObjAddr: 0x1C0D4, symBinAddr: 0x100021090, symSize: 0x28 }
  - { offsetInCU: 0x103D8, offset: 0x1DBDF, size: 0x8, addend: 0x0, symName: __ZNSt3__117__compressed_pairIP5AlienRNS_9allocatorIS1_EEEC2B7v160006IDnS5_EEOT_OT0_, symObjAddr: 0x1C0FC, symBinAddr: 0x1000210B8, symSize: 0x48 }
  - { offsetInCU: 0x1042E, offset: 0x1DC35, size: 0x8, addend: 0x0, symName: __ZNSt3__122__compressed_pair_elemIRNS_9allocatorI5AlienEELi1ELb0EEC2B7v160006IS4_vEEOT_, symObjAddr: 0x1C144, symBinAddr: 0x100021100, symSize: 0x70 }
  - { offsetInCU: 0x1046E, offset: 0x1DC75, size: 0x8, addend: 0x0, symName: __ZNSt3__19allocatorI5AlienE8allocateB7v160006Em, symObjAddr: 0x1C1B4, symBinAddr: 0x100021170, symSize: 0x5C }
  - { offsetInCU: 0x104A0, offset: 0x1DCA7, size: 0x8, addend: 0x0, symName: __ZNSt3__117__compressed_pairIP5AlienRNS_9allocatorIS1_EEE6secondB7v160006Ev, symObjAddr: 0x1C210, symBinAddr: 0x1000211CC, symSize: 0x28 }
  - { offsetInCU: 0x104C4, offset: 0x1DCCB, size: 0x8, addend: 0x0, symName: __ZNSt3__122__compressed_pair_elemIRNS_9allocatorI5AlienEELi1ELb0EE5__getB7v160006Ev, symObjAddr: 0x1C238, symBinAddr: 0x1000211F4, symSize: 0x60 }
  - { offsetInCU: 0x104E8, offset: 0x1DCEF, size: 0x8, addend: 0x0, symName: __ZNSt3__117__compressed_pairIP5AlienRNS_9allocatorIS1_EEE5firstB7v160006Ev, symObjAddr: 0x1C298, symBinAddr: 0x100021254, symSize: 0x24 }
  - { offsetInCU: 0x1050C, offset: 0x1DD13, size: 0x8, addend: 0x0, symName: __ZNSt3__116reverse_iteratorIP5AlienEC1B7v160006ES2_, symObjAddr: 0x1C800, symBinAddr: 0x1000217BC, symSize: 0x34 }
  - { offsetInCU: 0x10542, offset: 0x1DD49, size: 0x8, addend: 0x0, symName: __ZNKSt3__116reverse_iteratorIP5AlienE4baseB7v160006Ev, symObjAddr: 0x1C834, symBinAddr: 0x1000217F0, symSize: 0x64 }
  - { offsetInCU: 0x10566, offset: 0x1DD6D, size: 0x8, addend: 0x0, symName: __ZNKSt3__16vectorI5AlienNS_9allocatorIS1_EEE14__annotate_newB7v160006Em, symObjAddr: 0x1C9CC, symBinAddr: 0x100021988, symSize: 0xC0 }
  - { offsetInCU: 0x10599, offset: 0x1DDA0, size: 0x8, addend: 0x0, symName: __ZNSt3__129_AllocatorDestroyRangeReverseINS_9allocatorI5AlienEENS_16reverse_iteratorIPS2_EEEC1B7v160006ERS3_RS6_S9_, symObjAddr: 0x1CC94, symBinAddr: 0x100021C50, symSize: 0x44 }
  - { offsetInCU: 0x105EE, offset: 0x1DDF5, size: 0x8, addend: 0x0, symName: __ZNKSt3__116reverse_iteratorIP5AlienEdeB7v160006Ev, symObjAddr: 0x1CD44, symBinAddr: 0x100021D00, symSize: 0x74 }
  - { offsetInCU: 0x10620, offset: 0x1DE27, size: 0x8, addend: 0x0, symName: __ZNSt3__116reverse_iteratorIP5AlienEppB7v160006Ev, symObjAddr: 0x1CDB8, symBinAddr: 0x100021D74, symSize: 0x6C }
  - { offsetInCU: 0x10644, offset: 0x1DE4B, size: 0x8, addend: 0x0, symName: __ZNSt3__128__exception_guard_exceptionsINS_29_AllocatorDestroyRangeReverseINS_9allocatorI5AlienEENS_16reverse_iteratorIPS3_EEEEE10__completeB7v160006Ev, symObjAddr: 0x1CE24, symBinAddr: 0x100021DE0, symSize: 0x8C }
  - { offsetInCU: 0x10668, offset: 0x1DE6F, size: 0x8, addend: 0x0, symName: __ZNSt3__128__exception_guard_exceptionsINS_29_AllocatorDestroyRangeReverseINS_9allocatorI5AlienEENS_16reverse_iteratorIPS3_EEEEED1B7v160006Ev, symObjAddr: 0x1CEB0, symBinAddr: 0x100021E6C, symSize: 0x2C }
  - { offsetInCU: 0x10690, offset: 0x1DE97, size: 0x8, addend: 0x0, symName: __ZNSt3__128__exception_guard_exceptionsINS_29_AllocatorDestroyRangeReverseINS_9allocatorI5AlienEENS_16reverse_iteratorIPS3_EEEEEC1B7v160006ES8_, symObjAddr: 0x1CEDC, symBinAddr: 0x100021E98, symSize: 0x34 }
  - { offsetInCU: 0x106C7, offset: 0x1DECE, size: 0x8, addend: 0x0, symName: __ZNSt3__128__exception_guard_exceptionsINS_29_AllocatorDestroyRangeReverseINS_9allocatorI5AlienEENS_16reverse_iteratorIPS3_EEEEEC2B7v160006ES8_, symObjAddr: 0x1CF10, symBinAddr: 0x100021ECC, symSize: 0xA4 }
  - { offsetInCU: 0x106FE, offset: 0x1DF05, size: 0x8, addend: 0x0, symName: __ZNSt3__129_AllocatorDestroyRangeReverseINS_9allocatorI5AlienEENS_16reverse_iteratorIPS2_EEEC2B7v160006ERS3_RS6_S9_, symObjAddr: 0x1CFB4, symBinAddr: 0x100021F70, symSize: 0x104 }
  - { offsetInCU: 0x10759, offset: 0x1DF60, size: 0x8, addend: 0x0, symName: __ZNSt3__119__to_address_helperINS_16reverse_iteratorIP5AlienEEvE6__callB7v160006ERKS4_, symObjAddr: 0x1D0B8, symBinAddr: 0x100022074, symSize: 0x44 }
  - { offsetInCU: 0x1077A, offset: 0x1DF81, size: 0x8, addend: 0x0, symName: __ZNKSt3__116reverse_iteratorIP5AlienEptB7v160006Ev, symObjAddr: 0x1D0FC, symBinAddr: 0x1000220B8, symSize: 0x24 }
  - { offsetInCU: 0x1079E, offset: 0x1DFA5, size: 0x8, addend: 0x0, symName: __ZNSt3__128__exception_guard_exceptionsINS_29_AllocatorDestroyRangeReverseINS_9allocatorI5AlienEENS_16reverse_iteratorIPS3_EEEEED2B7v160006Ev, symObjAddr: 0x1D120, symBinAddr: 0x1000220DC, symSize: 0xBC }
  - { offsetInCU: 0x107C6, offset: 0x1DFCD, size: 0x8, addend: 0x0, symName: __ZNKSt3__129_AllocatorDestroyRangeReverseINS_9allocatorI5AlienEENS_16reverse_iteratorIPS2_EEEclB7v160006Ev, symObjAddr: 0x1D1DC, symBinAddr: 0x100022198, symSize: 0x3A8 }
  - { offsetInCU: 0x107EB, offset: 0x1DFF2, size: 0x8, addend: 0x0, symName: __ZNSt3__116reverse_iteratorINS0_IP5AlienEEEC1B7v160006ES3_, symObjAddr: 0x1D5F4, symBinAddr: 0x1000225B0, symSize: 0x248 }
  - { offsetInCU: 0x10826, offset: 0x1E02D, size: 0x8, addend: 0x0, symName: __ZNSt3__116reverse_iteratorINS0_IP5AlienEEEppB7v160006Ev, symObjAddr: 0x1DB2C, symBinAddr: 0x100022AE8, symSize: 0x30 }
  - { offsetInCU: 0x1084A, offset: 0x1E051, size: 0x8, addend: 0x0, symName: __ZNKSt3__116reverse_iteratorINS0_IP5AlienEEE4baseB7v160006Ev, symObjAddr: 0x1DB5C, symBinAddr: 0x100022B18, symSize: 0x20C }
  - { offsetInCU: 0x10875, offset: 0x1E07C, size: 0x8, addend: 0x0, symName: __ZNSt3__119__to_address_helperINS_16reverse_iteratorINS1_IP5AlienEEEEvE6__callB7v160006ERKS5_, symObjAddr: 0x1DD68, symBinAddr: 0x100022D24, symSize: 0x44 }
  - { offsetInCU: 0x10896, offset: 0x1E09D, size: 0x8, addend: 0x0, symName: __ZNKSt3__116reverse_iteratorINS0_IP5AlienEEEptB7v160006Ev, symObjAddr: 0x1DDAC, symBinAddr: 0x100022D68, symSize: 0x24 }
  - { offsetInCU: 0x108BA, offset: 0x1E0C1, size: 0x8, addend: 0x0, symName: __ZNKSt3__116reverse_iteratorINS0_IP5AlienEEEdeB7v160006Ev, symObjAddr: 0x1DDD0, symBinAddr: 0x100022D8C, symSize: 0x1EC }
  - { offsetInCU: 0x108F1, offset: 0x1E0F8, size: 0x8, addend: 0x0, symName: __ZNSt3__116reverse_iteratorIP5AlienEmmB7v160006Ev, symObjAddr: 0x1DFBC, symBinAddr: 0x100022F78, symSize: 0x6C }
  - { offsetInCU: 0x10915, offset: 0x1E11C, size: 0x8, addend: 0x0, symName: __ZNSt3__116reverse_iteratorINS0_IP5AlienEEEC2B7v160006ES3_, symObjAddr: 0x1E028, symBinAddr: 0x100022FE4, symSize: 0x22C }
  - { offsetInCU: 0x10950, offset: 0x1E157, size: 0x8, addend: 0x0, symName: __ZNSt3__116reverse_iteratorIP5AlienEC2B7v160006ES2_, symObjAddr: 0x1E254, symBinAddr: 0x100023210, symSize: 0xB8 }
  - { offsetInCU: 0x10987, offset: 0x1E18E, size: 0x8, addend: 0x0, symName: __ZNSt3__114__split_bufferI5AlienRNS_9allocatorIS1_EEED2Ev, symObjAddr: 0x1E30C, symBinAddr: 0x1000232C8, symSize: 0x104 }
  - { offsetInCU: 0x109B0, offset: 0x1E1B7, size: 0x8, addend: 0x0, symName: __ZNSt3__114__split_bufferI5AlienRNS_9allocatorIS1_EEE5clearB7v160006Ev, symObjAddr: 0x1E410, symBinAddr: 0x1000233CC, symSize: 0x68 }
  - { offsetInCU: 0x109D4, offset: 0x1E1DB, size: 0x8, addend: 0x0, symName: __ZNKSt3__114__split_bufferI5AlienRNS_9allocatorIS1_EEE8capacityB7v160006Ev, symObjAddr: 0x1E478, symBinAddr: 0x100023434, symSize: 0xBC }
  - { offsetInCU: 0x109F8, offset: 0x1E1FF, size: 0x8, addend: 0x0, symName: __ZNSt3__114__split_bufferI5AlienRNS_9allocatorIS1_EEE17__destruct_at_endB7v160006EPS1_, symObjAddr: 0x1E534, symBinAddr: 0x1000234F0, symSize: 0x2C }
  - { offsetInCU: 0x10A2A, offset: 0x1E231, size: 0x8, addend: 0x0, symName: __ZNSt3__114__split_bufferI5AlienRNS_9allocatorIS1_EEE17__destruct_at_endB7v160006EPS1_NS_17integral_constantIbLb0EEE, symObjAddr: 0x1E560, symBinAddr: 0x10002351C, symSize: 0x10C }
  - { offsetInCU: 0x10A68, offset: 0x1E26F, size: 0x8, addend: 0x0, symName: __ZNKSt3__114__split_bufferI5AlienRNS_9allocatorIS1_EEE9__end_capB7v160006Ev, symObjAddr: 0x1E66C, symBinAddr: 0x100023628, symSize: 0x28 }
  - { offsetInCU: 0x10A8C, offset: 0x1E293, size: 0x8, addend: 0x0, symName: __ZNKSt3__117__compressed_pairIP5AlienRNS_9allocatorIS1_EEE5firstB7v160006Ev, symObjAddr: 0x1E694, symBinAddr: 0x100023650, symSize: 0x24 }
  - { offsetInCU: 0x10AB0, offset: 0x1E2B7, size: 0x8, addend: 0x0, symName: __ZNKSt3__16vectorI5AlienNS_9allocatorIS1_EEE6cbeginB7v160006Ev, symObjAddr: 0x1E700, symBinAddr: 0x1000236BC, symSize: 0x234 }
  - { offsetInCU: 0x10AD5, offset: 0x1E2DC, size: 0x8, addend: 0x0, symName: __ZNSt3__16vectorI5AlienNS_9allocatorIS1_EEE17__destruct_at_endB7v160006EPS1_, symObjAddr: 0x1E934, symBinAddr: 0x1000238F0, symSize: 0x6C }
  - { offsetInCU: 0x10B18, offset: 0x1E31F, size: 0x8, addend: 0x0, symName: __ZNSt3__16vectorI5AlienNS_9allocatorIS1_EEE27__invalidate_iterators_pastB7v160006EPS1_, symObjAddr: 0x1EC0C, symBinAddr: 0x100023BC8, symSize: 0x14 }
  - { offsetInCU: 0x10B4D, offset: 0x1E354, size: 0x8, addend: 0x0, symName: __ZNKSt3__111__wrap_iterIPK5AlienE4baseB7v160006Ev, symObjAddr: 0x1EC20, symBinAddr: 0x100023BDC, symSize: 0x60 }
  - { offsetInCU: 0x10B71, offset: 0x1E378, size: 0x8, addend: 0x0, symName: __ZNKSt3__16vectorI5AlienNS_9allocatorIS1_EEE5beginB7v160006Ev, symObjAddr: 0x1EC80, symBinAddr: 0x100023C3C, symSize: 0x268 }
  - { offsetInCU: 0x10B98, offset: 0x1E39F, size: 0x8, addend: 0x0, symName: __ZNKSt3__16vectorI5AlienNS_9allocatorIS1_EEE11__make_iterB7v160006EPKS1_, symObjAddr: 0x1EEE8, symBinAddr: 0x100023EA4, symSize: 0x200 }
  - { offsetInCU: 0x10BCD, offset: 0x1E3D4, size: 0x8, addend: 0x0, symName: __ZNSt3__111__wrap_iterIPK5AlienEC1B7v160006EPKvS3_, symObjAddr: 0x1F0E8, symBinAddr: 0x1000240A4, symSize: 0x3C }
  - { offsetInCU: 0x10C11, offset: 0x1E418, size: 0x8, addend: 0x0, symName: __ZNSt3__111__wrap_iterIPK5AlienEC2B7v160006EPKvS3_, symObjAddr: 0x1F124, symBinAddr: 0x1000240E0, symSize: 0x74 }
  - { offsetInCU: 0x10C6E, offset: 0x1E475, size: 0x8, addend: 0x0, symName: __ZNKSt3__111__move_loopINS_17_ClassicAlgPolicyEEclB7v160006IP5AlienS5_S5_EENS_4pairIT_T1_EES7_T0_S8_, symObjAddr: 0x1FEE4, symBinAddr: 0x100024EA0, symSize: 0x3FC }
  - { offsetInCU: 0x10CE2, offset: 0x1E4E9, size: 0x8, addend: 0x0, symName: __ZNSt3__18_IterOpsINS_17_ClassicAlgPolicyEE11__iter_moveB7v160006IRP5AlienEENS_9enable_ifIXsr12is_referenceIDTdeclsr3stdE7declvalIRT_EEEEE5valueEDTclsr3stdE4movedeclsr3stdE7declvalIS9_EEEEE4typeEOS8_, symObjAddr: 0x20584, symBinAddr: 0x100025540, symSize: 0x6C }
  - { offsetInCU: 0x10D0D, offset: 0x1E514, size: 0x8, addend: 0x0, symName: __ZNSt3__18_IterOpsINS_17_ClassicAlgPolicyEE25__validate_iter_referenceB7v160006IRP5AlienEEvv, symObjAddr: 0x205F0, symBinAddr: 0x1000255AC, symSize: 0x4 }
  - { offsetInCU: 0x10D2A, offset: 0x1E531, size: 0x8, addend: 0x0, symName: __ZNSt3__118__unwrap_iter_implIP5AlienLb1EE8__unwrapB7v160006ES2_, symObjAddr: 0x205F4, symBinAddr: 0x1000255B0, symSize: 0x24 }
  - { offsetInCU: 0x10D50, offset: 0x1E557, size: 0x8, addend: 0x0, symName: __ZNSt3__14pairIP5AlienS2_EC1B7v160006IS2_S2_LPv0EEEOT_OT0_, symObjAddr: 0x20618, symBinAddr: 0x1000255D4, symSize: 0x3C }
  - { offsetInCU: 0x10DAC, offset: 0x1E5B3, size: 0x8, addend: 0x0, symName: __ZNSt3__14pairIP5AlienS2_EC2B7v160006IS2_S2_LPv0EEEOT_OT0_, symObjAddr: 0x20654, symBinAddr: 0x100025610, symSize: 0x138 }
  - { offsetInCU: 0x10E09, offset: 0x1E610, size: 0x8, addend: 0x0, symName: __ZNSt3__118__unwrap_iter_implIP5AlienLb1EE8__rewrapB7v160006ES2_S2_, symObjAddr: 0x2078C, symBinAddr: 0x100025748, symSize: 0x50 }
  - { offsetInCU: 0x10E38, offset: 0x1E63F, size: 0x8, addend: 0x0, symName: __ZNSt3__111__wrap_iterIPK5AlienEC2B7v160006IPS1_EERKNS0_IT_EEPNS_9enable_ifIXsr14is_convertibleIS7_S3_EE5valueEvE4typeE, symObjAddr: 0x207DC, symBinAddr: 0x100025798, symSize: 0x84 }
  - { offsetInCU: 0x10E81, offset: 0x1E688, size: 0x8, addend: 0x0, symName: __ZNSt3__16vectorI5BlockNS_9allocatorIS1_EEE11__make_iterB7v160006EPS1_, symObjAddr: 0x20860, symBinAddr: 0x10002581C, symSize: 0x200 }
  - { offsetInCU: 0x10EB6, offset: 0x1E6BD, size: 0x8, addend: 0x0, symName: __ZNSt3__111__wrap_iterIP5BlockEC1B7v160006EPKvS2_, symObjAddr: 0x20A60, symBinAddr: 0x100025A1C, symSize: 0x3C }
  - { offsetInCU: 0x10EFA, offset: 0x1E701, size: 0x8, addend: 0x0, symName: __ZNSt3__111__wrap_iterIP5BlockEC2B7v160006EPKvS2_, symObjAddr: 0x20A9C, symBinAddr: 0x100025A58, symSize: 0x74 }
  - { offsetInCU: 0x10F3E, offset: 0x1E745, size: 0x8, addend: 0x0, symName: __ZNKSt3__16vectorI5BlockNS_9allocatorIS1_EEE6cbeginB7v160006Ev, symObjAddr: 0x20B58, symBinAddr: 0x100025B14, symSize: 0x234 }
  - { offsetInCU: 0x10F63, offset: 0x1E76A, size: 0x8, addend: 0x0, symName: __ZNSt3__16vectorI5BlockNS_9allocatorIS1_EEE17__destruct_at_endB7v160006EPS1_, symObjAddr: 0x20D8C, symBinAddr: 0x100025D48, symSize: 0x6C }
  - { offsetInCU: 0x10FA6, offset: 0x1E7AD, size: 0x8, addend: 0x0, symName: __ZNSt3__16vectorI5BlockNS_9allocatorIS1_EEE27__invalidate_iterators_pastB7v160006EPS1_, symObjAddr: 0x21064, symBinAddr: 0x100026020, symSize: 0x14 }
  - { offsetInCU: 0x10FDB, offset: 0x1E7E2, size: 0x8, addend: 0x0, symName: __ZNKSt3__111__wrap_iterIPK5BlockE4baseB7v160006Ev, symObjAddr: 0x21078, symBinAddr: 0x100026034, symSize: 0x60 }
  - { offsetInCU: 0x10FFF, offset: 0x1E806, size: 0x8, addend: 0x0, symName: __ZNKSt3__16vectorI5BlockNS_9allocatorIS1_EEE5beginB7v160006Ev, symObjAddr: 0x210D8, symBinAddr: 0x100026094, symSize: 0x268 }
  - { offsetInCU: 0x11026, offset: 0x1E82D, size: 0x8, addend: 0x0, symName: __ZNKSt3__16vectorI5BlockNS_9allocatorIS1_EEE11__make_iterB7v160006EPKS1_, symObjAddr: 0x21340, symBinAddr: 0x1000262FC, symSize: 0x200 }
  - { offsetInCU: 0x1105B, offset: 0x1E862, size: 0x8, addend: 0x0, symName: __ZNSt3__111__wrap_iterIPK5BlockEC1B7v160006EPKvS3_, symObjAddr: 0x21540, symBinAddr: 0x1000264FC, symSize: 0x3C }
  - { offsetInCU: 0x1109F, offset: 0x1E8A6, size: 0x8, addend: 0x0, symName: __ZNSt3__111__wrap_iterIPK5BlockEC2B7v160006EPKvS3_, symObjAddr: 0x2157C, symBinAddr: 0x100026538, symSize: 0x74 }
  - { offsetInCU: 0x110E3, offset: 0x1E8EA, size: 0x8, addend: 0x0, symName: __ZNKSt3__16vectorI5BlockNS_9allocatorIS1_EEE17__annotate_shrinkB7v160006Em, symObjAddr: 0x215F0, symBinAddr: 0x1000265AC, symSize: 0xC8 }
  - { offsetInCU: 0x1112F, offset: 0x1E936, size: 0x8, addend: 0x0, symName: __ZNKSt3__111__move_loopINS_17_ClassicAlgPolicyEEclB7v160006IP5BlockS5_S5_EENS_4pairIT_T1_EES7_T0_S8_, symObjAddr: 0x22404, symBinAddr: 0x1000273C0, symSize: 0x3FC }
  - { offsetInCU: 0x111A8, offset: 0x1E9AF, size: 0x8, addend: 0x0, symName: __ZNSt3__18_IterOpsINS_17_ClassicAlgPolicyEE11__iter_moveB7v160006IRP5BlockEENS_9enable_ifIXsr12is_referenceIDTdeclsr3stdE7declvalIRT_EEEEE5valueEDTclsr3stdE4movedeclsr3stdE7declvalIS9_EEEEE4typeEOS8_, symObjAddr: 0x22AA4, symBinAddr: 0x100027A60, symSize: 0x6C }
  - { offsetInCU: 0x111D3, offset: 0x1E9DA, size: 0x8, addend: 0x0, symName: __ZNSt3__18_IterOpsINS_17_ClassicAlgPolicyEE25__validate_iter_referenceB7v160006IRP5BlockEEvv, symObjAddr: 0x22B10, symBinAddr: 0x100027ACC, symSize: 0x4 }
  - { offsetInCU: 0x111F0, offset: 0x1E9F7, size: 0x8, addend: 0x0, symName: __ZNSt3__118__unwrap_iter_implIP5BlockLb1EE8__unwrapB7v160006ES2_, symObjAddr: 0x22B14, symBinAddr: 0x100027AD0, symSize: 0x24 }
  - { offsetInCU: 0x11216, offset: 0x1EA1D, size: 0x8, addend: 0x0, symName: __ZNSt3__14pairIP5BlockS2_EC1B7v160006IS2_S2_LPv0EEEOT_OT0_, symObjAddr: 0x22B38, symBinAddr: 0x100027AF4, symSize: 0x3C }
  - { offsetInCU: 0x11272, offset: 0x1EA79, size: 0x8, addend: 0x0, symName: __ZNSt3__14pairIP5BlockS2_EC2B7v160006IS2_S2_LPv0EEEOT_OT0_, symObjAddr: 0x22B74, symBinAddr: 0x100027B30, symSize: 0x138 }
  - { offsetInCU: 0x112CF, offset: 0x1EAD6, size: 0x8, addend: 0x0, symName: __ZNSt3__118__unwrap_iter_implIP5BlockLb1EE8__rewrapB7v160006ES2_S2_, symObjAddr: 0x22CAC, symBinAddr: 0x100027C68, symSize: 0x50 }
  - { offsetInCU: 0x112FE, offset: 0x1EB05, size: 0x8, addend: 0x0, symName: __ZNSt3__111__wrap_iterIPK5BlockEC2B7v160006IPS1_EERKNS0_IT_EEPNS_9enable_ifIXsr14is_convertibleIS7_S3_EE5valueEvE4typeE, symObjAddr: 0x22CFC, symBinAddr: 0x100027CB8, symSize: 0x84 }
  - { offsetInCU: 0x26, offset: 0x1ECF0, size: 0x8, addend: 0x0, symName: __ZN5LaserC2E7Vector2i, symObjAddr: 0x0, symBinAddr: 0x100027DD4, symSize: 0x370 }
  - { offsetInCU: 0x28BC, offset: 0x21586, size: 0x8, addend: 0x0, symName: __ZN5LaserC2E7Vector2i, symObjAddr: 0x0, symBinAddr: 0x100027DD4, symSize: 0x370 }
  - { offsetInCU: 0x2908, offset: 0x215D2, size: 0x8, addend: 0x0, symName: __ZN5LaserC1E7Vector2i, symObjAddr: 0x370, symBinAddr: 0x100028144, symSize: 0x368 }
  - { offsetInCU: 0x2954, offset: 0x2161E, size: 0x8, addend: 0x0, symName: __ZN5Laser4DrawEv, symObjAddr: 0x6D8, symBinAddr: 0x1000284AC, symSize: 0x4E8 }
  - { offsetInCU: 0x297B, offset: 0x21645, size: 0x8, addend: 0x0, symName: __ZN5Laser6UpdateEv, symObjAddr: 0xBC0, symBinAddr: 0x100028994, symSize: 0x260 }
  - { offsetInCU: 0x29A1, offset: 0x2166B, size: 0x8, addend: 0x0, symName: __ZN5Laser7getRectEv, symObjAddr: 0xE20, symBinAddr: 0x100028BF4, symSize: 0x4FC }
  - { offsetInCU: 0x26, offset: 0x216BD, size: 0x8, addend: 0x0, symName: __ZN5BlockC2E7Vector2, symObjAddr: 0x0, symBinAddr: 0x100029108, symSize: 0x294 }
  - { offsetInCU: 0x3A, offset: 0x216D1, size: 0x8, addend: 0x0, symName: __ZN5BlockC2E7Vector2, symObjAddr: 0x0, symBinAddr: 0x100029108, symSize: 0x294 }
  - { offsetInCU: 0x77, offset: 0x2170E, size: 0x8, addend: 0x0, symName: __ZN5BlockC1E7Vector2, symObjAddr: 0x294, symBinAddr: 0x10002939C, symSize: 0x350 }
  - { offsetInCU: 0xB4, offset: 0x2174B, size: 0x8, addend: 0x0, symName: __ZN5BlockD2Ev, symObjAddr: 0x5E4, symBinAddr: 0x1000296EC, symSize: 0x14 }
  - { offsetInCU: 0xDF, offset: 0x21776, size: 0x8, addend: 0x0, symName: __ZN5BlockD1Ev, symObjAddr: 0x5F8, symBinAddr: 0x100029700, symSize: 0x2C }
  - { offsetInCU: 0x109, offset: 0x217A0, size: 0x8, addend: 0x0, symName: __ZN5Block4DrawEv, symObjAddr: 0x624, symBinAddr: 0x10002972C, symSize: 0x484 }
  - { offsetInCU: 0x130, offset: 0x217C7, size: 0x8, addend: 0x0, symName: __ZN5Block7getRectEv, symObjAddr: 0xAA8, symBinAddr: 0x100029BB0, symSize: 0x4F8 }
  - { offsetInCU: 0x39, offset: 0x2182C, size: 0x8, addend: 0x0, symName: __ZN8Obstacle4gridE, symObjAddr: 0x479C0, symBinAddr: 0x100054800, symSize: 0x0 }
  - { offsetInCU: 0x4CD7, offset: 0x264CA, size: 0x8, addend: 0x0, symName: __ZNSt3__118__debug_db_erase_cB7v160006INS_6vectorIiNS_9allocatorIiEEEEEEvPT_, symObjAddr: 0x22A4, symBinAddr: 0x10002BBF0, symSize: 0x10 }
  - { offsetInCU: 0x4D08, offset: 0x264FB, size: 0x8, addend: 0x0, symName: __ZNSt3__112__to_addressB7v160006IiEEPT_S2_, symObjAddr: 0x24EC, symBinAddr: 0x10002BE38, symSize: 0x14 }
  - { offsetInCU: 0x4D3D, offset: 0x26530, size: 0x8, addend: 0x0, symName: __ZNSt3__122__make_exception_guardB7v160006INS_6vectorIiNS_9allocatorIiEEE16__destroy_vectorEEENS_28__exception_guard_exceptionsIT_EES7_, symObjAddr: 0x2D24, symBinAddr: 0x10002C5F4, symSize: 0x278 }
  - { offsetInCU: 0x4D76, offset: 0x26569, size: 0x8, addend: 0x0, symName: __ZNSt3__119__debug_db_insert_cB7v160006INS_6vectorIiNS_9allocatorIiEEEEEEvPT_, symObjAddr: 0x2F9C, symBinAddr: 0x10002C86C, symSize: 0x10 }
  - { offsetInCU: 0x4DA7, offset: 0x2659A, size: 0x8, addend: 0x0, symName: __ZNSt3__119__allocate_at_leastB7v160006INS_9allocatorIiEEEENS_19__allocation_resultINS_16allocator_traitsIT_E7pointerEEERS5_m, symObjAddr: 0x4238, symBinAddr: 0x10002DB08, symSize: 0x28C }
  - { offsetInCU: 0x4DEC, offset: 0x265DF, size: 0x8, addend: 0x0, symName: __ZNSt3__130__uninitialized_allocator_copyB7v160006INS_9allocatorIiEEiiLPv0EEEPT0_RT_PKS4_S9_S5_, symObjAddr: 0x4BAC, symBinAddr: 0x10002DFE4, symSize: 0x38 }
  - { offsetInCU: 0x4E64, offset: 0x26657, size: 0x8, addend: 0x0, symName: __ZNSt3__14copyB7v160006IPKiPiEET0_T_S5_S4_, symObjAddr: 0x4EB8, symBinAddr: 0x10002E2F0, symSize: 0x26C }
  - { offsetInCU: 0x4EC1, offset: 0x266B4, size: 0x8, addend: 0x0, symName: __ZNSt3__16__copyB7v160006INS_17_ClassicAlgPolicyEPKiS3_PiEENS_4pairIT0_T2_EES6_T1_S7_, symObjAddr: 0x5124, symBinAddr: 0x10002E55C, symSize: 0x22C }
  - { offsetInCU: 0x4F30, offset: 0x26723, size: 0x8, addend: 0x0, symName: __ZNSt3__123__dispatch_copy_or_moveB7v160006INS_17_ClassicAlgPolicyENS_11__copy_loopIS1_EENS_14__copy_trivialEPKiS6_PiEENS_4pairIT2_T4_EES9_T3_SA_, symObjAddr: 0x5350, symBinAddr: 0x10002E788, symSize: 0x22C }
  - { offsetInCU: 0x4FB1, offset: 0x267A4, size: 0x8, addend: 0x0, symName: __ZNSt3__121__unwrap_and_dispatchB7v160006INS_10__overloadINS_11__copy_loopINS_17_ClassicAlgPolicyEEENS_14__copy_trivialEEEPKiS8_PiLi0EEENS_4pairIT0_T2_EESB_T1_SC_, symObjAddr: 0x557C, symBinAddr: 0x10002E9B4, symSize: 0x5A4 }
  - { offsetInCU: 0x504A, offset: 0x2683D, size: 0x8, addend: 0x0, symName: __ZNSt3__114__unwrap_rangeB7v160006IPKiS2_EENS_4pairIT0_S4_EET_S6_, symObjAddr: 0x5B20, symBinAddr: 0x10002EF58, symSize: 0x350 }
  - { offsetInCU: 0x51E1, offset: 0x269D4, size: 0x8, addend: 0x0, symName: __ZNSt3__113__unwrap_iterB7v160006IPiNS_18__unwrap_iter_implIS1_Lb1EEELi0EEEDTclsrT0_8__unwrapclsr3stdE7declvalIT_EEEES5_, symObjAddr: 0x60A0, symBinAddr: 0x10002F4D8, symSize: 0x24 }
  - { offsetInCU: 0x5225, offset: 0x26A18, size: 0x8, addend: 0x0, symName: __ZNSt3__19make_pairB7v160006IPKiPiEENS_4pairINS_18__unwrap_ref_decayIT_E4typeENS5_IT0_E4typeEEEOS6_OS9_, symObjAddr: 0x60C4, symBinAddr: 0x10002F4FC, symSize: 0x20C }
  - { offsetInCU: 0x5276, offset: 0x26A69, size: 0x8, addend: 0x0, symName: __ZNSt3__114__rewrap_rangeB7v160006IPKiS2_EET_S3_T0_, symObjAddr: 0x62D0, symBinAddr: 0x10002F708, symSize: 0x2C }
  - { offsetInCU: 0x52C2, offset: 0x26AB5, size: 0x8, addend: 0x0, symName: __ZNSt3__113__rewrap_iterB7v160006IPiS1_NS_18__unwrap_iter_implIS1_Lb1EEEEET_S4_T0_, symObjAddr: 0x62FC, symBinAddr: 0x10002F734, symSize: 0x48 }
  - { offsetInCU: 0x5317, offset: 0x26B0A, size: 0x8, addend: 0x0, symName: __ZNSt3__19make_pairB7v160006IPKiS2_EENS_4pairINS_18__unwrap_ref_decayIT_E4typeENS4_IT0_E4typeEEEOS5_OS8_, symObjAddr: 0x6344, symBinAddr: 0x10002F77C, symSize: 0x20C }
  - { offsetInCU: 0x5368, offset: 0x26B5B, size: 0x8, addend: 0x0, symName: __ZNSt3__113__unwrap_iterB7v160006IPKiNS_18__unwrap_iter_implIS2_Lb1EEELi0EEEDTclsrT0_8__unwrapclsr3stdE7declvalIT_EEEES6_, symObjAddr: 0x6550, symBinAddr: 0x10002F988, symSize: 0x24 }
  - { offsetInCU: 0x54D3, offset: 0x26CC6, size: 0x8, addend: 0x0, symName: __ZNSt3__112__to_addressB7v160006IKiEEPT_S3_, symObjAddr: 0x670C, symBinAddr: 0x10002FB44, symSize: 0x14 }
  - { offsetInCU: 0x5508, offset: 0x26CFB, size: 0x8, addend: 0x0, symName: __ZNSt3__119__copy_trivial_implB7v160006IKiiEENS_4pairIPT_PT0_EES4_S4_S6_, symObjAddr: 0x6720, symBinAddr: 0x10002FB58, symSize: 0x3B8 }
  - { offsetInCU: 0x5577, offset: 0x26D6A, size: 0x8, addend: 0x0, symName: __ZNSt3__19make_pairB7v160006IRPKiPiEENS_4pairINS_18__unwrap_ref_decayIT_E4typeENS6_IT0_E4typeEEEOS7_OSA_, symObjAddr: 0x6AD8, symBinAddr: 0x10002FF10, symSize: 0x20C }
  - { offsetInCU: 0x561B, offset: 0x26E0E, size: 0x8, addend: 0x0, symName: __ZNSt3__113__rewrap_iterB7v160006IPKiS2_NS_18__unwrap_iter_implIS2_Lb1EEEEET_S5_T0_, symObjAddr: 0x6FF0, symBinAddr: 0x100030428, symSize: 0x48 }
  - { offsetInCU: 0x5670, offset: 0x26E63, size: 0x8, addend: 0x0, symName: __ZNSt3__122__make_exception_guardB7v160006INS_6vectorINS1_IiNS_9allocatorIiEEEENS2_IS4_EEE16__destroy_vectorEEENS_28__exception_guard_exceptionsIT_EES9_, symObjAddr: 0x7A44, symBinAddr: 0x100030E7C, symSize: 0x278 }
  - { offsetInCU: 0x56A9, offset: 0x26E9C, size: 0x8, addend: 0x0, symName: __ZNSt3__119__debug_db_insert_cB7v160006INS_6vectorINS1_IiNS_9allocatorIiEEEENS2_IS4_EEEEEEvPT_, symObjAddr: 0x7CF0, symBinAddr: 0x100031128, symSize: 0x10 }
  - { offsetInCU: 0x56DA, offset: 0x26ECD, size: 0x8, addend: 0x0, symName: __ZNSt3__119__allocate_at_leastB7v160006INS_9allocatorINS_6vectorIiNS1_IiEEEEEEEENS_19__allocation_resultINS_16allocator_traitsIT_E7pointerEEERS8_m, symObjAddr: 0x900C, symBinAddr: 0x100032444, symSize: 0x28C }
  - { offsetInCU: 0x571F, offset: 0x26F12, size: 0x8, addend: 0x0, symName: __ZNSt3__112__to_addressB7v160006INS_6vectorIiNS_9allocatorIiEEEEEEPT_S6_, symObjAddr: 0x96A8, symBinAddr: 0x100032AE0, symSize: 0x14 }
  - { offsetInCU: 0x5754, offset: 0x26F47, size: 0x8, addend: 0x0, symName: __ZNSt3__130__uninitialized_allocator_copyB7v160006INS_9allocatorINS_6vectorIiNS1_IiEEEEEEPKS4_S7_PS4_EET2_RT_T0_T1_S9_, symObjAddr: 0x9758, symBinAddr: 0x100032B90, symSize: 0x520 }
  - { offsetInCU: 0x5800, offset: 0x26FF3, size: 0x8, addend: 0x0, symName: __ZNSt3__122__make_exception_guardB7v160006INS_29_AllocatorDestroyRangeReverseINS_9allocatorINS_6vectorIiNS2_IiEEEEEEPS5_EEEENS_28__exception_guard_exceptionsIT_EESA_, symObjAddr: 0x9F74, symBinAddr: 0x1000333AC, symSize: 0x1F8 }
  - { offsetInCU: 0x5837, offset: 0x2702A, size: 0x8, addend: 0x0, symName: __ZNSt3__130__uninitialized_allocator_copyB7v160006INS_9allocatorIiEEPiS3_S3_EET2_RT_T0_T1_S4_, symObjAddr: 0xAE3C, symBinAddr: 0x100034274, symSize: 0x520 }
  - { offsetInCU: 0x58E3, offset: 0x270D6, size: 0x8, addend: 0x0, symName: __ZNSt3__122__make_exception_guardB7v160006INS_29_AllocatorDestroyRangeReverseINS_9allocatorIiEEPiEEEENS_28__exception_guard_exceptionsIT_EES7_, symObjAddr: 0xB35C, symBinAddr: 0x100034794, symSize: 0x1F8 }
  - { offsetInCU: 0x591A, offset: 0x2710D, size: 0x8, addend: 0x0, symName: __ZNSt3__119__allocator_destroyB7v160006INS_9allocatorIiEENS_16reverse_iteratorIPiEES5_EEvRT_T0_T1_, symObjAddr: 0xBDBC, symBinAddr: 0x1000351F4, symSize: 0x2B8 }
  - { offsetInCU: 0x5986, offset: 0x27179, size: 0x8, addend: 0x0, symName: __ZNSt3__1neB7v160006IPiS1_EEbRKNS_16reverse_iteratorIT_EERKNS2_IT0_EE, symObjAddr: 0xC0A8, symBinAddr: 0x1000354E0, symSize: 0x48 }
  - { offsetInCU: 0x59D2, offset: 0x271C5, size: 0x8, addend: 0x0, symName: __ZNSt3__112__to_addressB7v160006INS_16reverse_iteratorIPiEEvEENS_5decayIDTclsr19__to_address_helperIT_EE6__callclsr3stdE7declvalIRKS5_EEEEE4typeES7_, symObjAddr: 0xC0F0, symBinAddr: 0x100035528, symSize: 0x24 }
  - { offsetInCU: 0x5A31, offset: 0x27224, size: 0x8, addend: 0x0, symName: __ZNSt3__119__allocator_destroyB7v160006INS_9allocatorINS_6vectorIiNS1_IiEEEEEENS_16reverse_iteratorIPS4_EES8_EEvRT_T0_T1_, symObjAddr: 0xC7D0, symBinAddr: 0x100035C08, symSize: 0x2B8 }
  - { offsetInCU: 0x5A9D, offset: 0x27290, size: 0x8, addend: 0x0, symName: __ZNSt3__1neB7v160006IPNS_6vectorIiNS_9allocatorIiEEEES5_EEbRKNS_16reverse_iteratorIT_EERKNS6_IT0_EE, symObjAddr: 0xCABC, symBinAddr: 0x100035EF4, symSize: 0x48 }
  - { offsetInCU: 0x5AE9, offset: 0x272DC, size: 0x8, addend: 0x0, symName: __ZNSt3__112__to_addressB7v160006INS_16reverse_iteratorIPNS_6vectorIiNS_9allocatorIiEEEEEEvEENS_5decayIDTclsr19__to_address_helperIT_EE6__callclsr3stdE7declvalIRKS9_EEEEE4typeESB_, symObjAddr: 0xCB30, symBinAddr: 0x100035F68, symSize: 0x24 }
  - { offsetInCU: 0x5B48, offset: 0x2733B, size: 0x8, addend: 0x0, symName: __ZNSt3__118__debug_db_erase_cB7v160006INS_6vectorINS1_IiNS_9allocatorIiEEEENS2_IS4_EEEEEEvPT_, symObjAddr: 0xD544, symBinAddr: 0x10003697C, symSize: 0x10 }
  - { offsetInCU: 0x5B79, offset: 0x2736C, size: 0x8, addend: 0x0, symName: __ZNSt3__119__allocate_at_leastB7v160006INS_9allocatorI5BlockEEEENS_19__allocation_resultINS_16allocator_traitsIT_E7pointerEEERS6_m, symObjAddr: 0x10B8C, symBinAddr: 0x1000390F0, symSize: 0x28C }
  - { offsetInCU: 0x5BBE, offset: 0x273B1, size: 0x8, addend: 0x0, symName: __ZNSt3__142__uninitialized_allocator_move_if_noexceptB7v160006INS_9allocatorI5BlockEENS_16reverse_iteratorIPS2_EES6_S6_EET2_RT_T0_T1_S7_, symObjAddr: 0x11028, symBinAddr: 0x10003958C, symSize: 0x544 }
  - { offsetInCU: 0x5C73, offset: 0x27466, size: 0x8, addend: 0x0, symName: __ZNSt3__14swapB7v160006IP5BlockEENS_9enable_ifIXaasr21is_move_constructibleIT_EE5valuesr18is_move_assignableIS4_EE5valueEvE4typeERS4_S7_, symObjAddr: 0x11604, symBinAddr: 0x100039B68, symSize: 0x134 }
  - { offsetInCU: 0x5CC4, offset: 0x274B7, size: 0x8, addend: 0x0, symName: __ZNSt3__125__debug_db_invalidate_allB7v160006INS_6vectorI5BlockNS_9allocatorIS2_EEEEEEvPT_, symObjAddr: 0x117F8, symBinAddr: 0x100039D5C, symSize: 0x10 }
  - { offsetInCU: 0x5CF5, offset: 0x274E8, size: 0x8, addend: 0x0, symName: __ZNSt3__122__make_exception_guardB7v160006INS_29_AllocatorDestroyRangeReverseINS_9allocatorI5BlockEENS_16reverse_iteratorIPS3_EEEEEENS_28__exception_guard_exceptionsIT_EESA_, symObjAddr: 0x11808, symBinAddr: 0x100039D6C, symSize: 0x1F8 }
  - { offsetInCU: 0x5D2C, offset: 0x2751F, size: 0x8, addend: 0x0, symName: __ZNSt3__1neB7v160006IP5BlockS2_EEbRKNS_16reverse_iteratorIT_EERKNS3_IT0_EE, symObjAddr: 0x11A44, symBinAddr: 0x100039FA8, symSize: 0x48 }
  - { offsetInCU: 0x5D78, offset: 0x2756B, size: 0x8, addend: 0x0, symName: __ZNSt3__112__to_addressB7v160006INS_16reverse_iteratorIP5BlockEEvEENS_5decayIDTclsr19__to_address_helperIT_EE6__callclsr3stdE7declvalIRKS6_EEEEE4typeES8_, symObjAddr: 0x11AC0, symBinAddr: 0x10003A024, symSize: 0x24 }
  - { offsetInCU: 0x5DD7, offset: 0x275CA, size: 0x8, addend: 0x0, symName: __ZNSt3__119__allocator_destroyB7v160006INS_9allocatorI5BlockEENS_16reverse_iteratorINS4_IPS2_EEEES7_EEvRT_T0_T1_, symObjAddr: 0x12358, symBinAddr: 0x10003A8BC, symSize: 0x70 }
  - { offsetInCU: 0x5E3C, offset: 0x2762F, size: 0x8, addend: 0x0, symName: __ZNSt3__1neB7v160006INS_16reverse_iteratorIP5BlockEES4_EEbRKNS1_IT_EERKNS1_IT0_EE, symObjAddr: 0x12610, symBinAddr: 0x10003AB74, symSize: 0x2CC }
  - { offsetInCU: 0x5E8A, offset: 0x2767D, size: 0x8, addend: 0x0, symName: __ZNSt3__112__to_addressB7v160006INS_16reverse_iteratorINS1_IP5BlockEEEEvEENS_5decayIDTclsr19__to_address_helperIT_EE6__callclsr3stdE7declvalIRKS7_EEEEE4typeES9_, symObjAddr: 0x128DC, symBinAddr: 0x10003AE40, symSize: 0x24 }
  - { offsetInCU: 0x643F, offset: 0x27C32, size: 0x8, addend: 0x0, symName: _.str, symObjAddr: 0x15DE0, symBinAddr: 0x1000420E0, symSize: 0x0 }
  - { offsetInCU: 0x6526, offset: 0x27D19, size: 0x8, addend: 0x0, symName: __ZNSt3__16vectorI5BlockNS_9allocatorIS1_EEE26__swap_out_circular_bufferERNS_14__split_bufferIS1_RS3_EE, symObjAddr: 0xFAC8, symBinAddr: 0x100038240, symSize: 0x574 }
  - { offsetInCU: 0x831E, offset: 0x29B11, size: 0x8, addend: 0x0, symName: __ZNSt3__16vectorIiNS_9allocatorIiEEEC1B7v160006ESt16initializer_listIiE, symObjAddr: 0x0, symBinAddr: 0x10002A0C0, symSize: 0x248 }
  - { offsetInCU: 0x835C, offset: 0x29B4F, size: 0x8, addend: 0x0, symName: __ZNSt3__16vectorINS0_IiNS_9allocatorIiEEEENS1_IS3_EEEC1B7v160006ESt16initializer_listIS3_E, symObjAddr: 0x248, symBinAddr: 0x10002A308, symSize: 0x248 }
  - { offsetInCU: 0x839A, offset: 0x29B8D, size: 0x8, addend: 0x0, symName: __ZNSt3__16vectorIiNS_9allocatorIiEEED1B7v160006Ev, symObjAddr: 0x490, symBinAddr: 0x10002A550, symSize: 0x2C }
  - { offsetInCU: 0x83C2, offset: 0x29BB5, size: 0x8, addend: 0x0, symName: __ZNSt3__16vectorINS0_IiNS_9allocatorIiEEEENS1_IS3_EEED1B7v160006Ev, symObjAddr: 0x4BC, symBinAddr: 0x10002A57C, symSize: 0x2C }
  - { offsetInCU: 0x83EA, offset: 0x29BDD, size: 0x8, addend: 0x0, symName: __ZN8ObstacleC2E7Vector2, symObjAddr: 0x4E8, symBinAddr: 0x10002A5A8, symSize: 0x7BC }
  - { offsetInCU: 0x848A, offset: 0x29C7D, size: 0x8, addend: 0x0, symName: __ZNSt3__16vectorI5BlockNS_9allocatorIS1_EEEC1B7v160006Ev, symObjAddr: 0xCA4, symBinAddr: 0x10002AD64, symSize: 0x2C }
  - { offsetInCU: 0x84B2, offset: 0x29CA5, size: 0x8, addend: 0x0, symName: __ZNKSt3__16vectorINS0_IiNS_9allocatorIiEEEENS1_IS3_EEE4sizeB7v160006Ev, symObjAddr: 0xCD0, symBinAddr: 0x10002AD90, symSize: 0xB0 }
  - { offsetInCU: 0x84D6, offset: 0x29CC9, size: 0x8, addend: 0x0, symName: __ZNSt3__16vectorIiNS_9allocatorIiEEEixB7v160006Em, symObjAddr: 0xEA4, symBinAddr: 0x10002AE40, symSize: 0x6C }
  - { offsetInCU: 0x850B, offset: 0x29CFE, size: 0x8, addend: 0x0, symName: __ZNSt3__16vectorI5BlockNS_9allocatorIS1_EEE9push_backB7v160006ERKS1_, symObjAddr: 0xF10, symBinAddr: 0x10002AEAC, symSize: 0xE0 }
  - { offsetInCU: 0x8540, offset: 0x29D33, size: 0x8, addend: 0x0, symName: __ZN8ObstacleC1E7Vector2, symObjAddr: 0x101C, symBinAddr: 0x10002AF8C, symSize: 0x350 }
  - { offsetInCU: 0x857D, offset: 0x29D70, size: 0x8, addend: 0x0, symName: __ZN8Obstacle4DrawEv, symObjAddr: 0x136C, symBinAddr: 0x10002B2DC, symSize: 0x2E8 }
  - { offsetInCU: 0x85FF, offset: 0x29DF2, size: 0x8, addend: 0x0, symName: __ZNKSt3__111__wrap_iterIP5BlockEdeB7v160006Ev, symObjAddr: 0x1B5C, symBinAddr: 0x10002B5C4, symSize: 0x60 }
  - { offsetInCU: 0x8623, offset: 0x29E16, size: 0x8, addend: 0x0, symName: __ZNSt3__16vectorIiNS_9allocatorIiEEED2B7v160006Ev, symObjAddr: 0x1CCC, symBinAddr: 0x10002B624, symSize: 0x1F8 }
  - { offsetInCU: 0x864C, offset: 0x29E3F, size: 0x8, addend: 0x0, symName: __ZNSt3__16vectorIiNS_9allocatorIiEEE16__destroy_vectorC1ERS3_, symObjAddr: 0x1EC4, symBinAddr: 0x10002B81C, symSize: 0x34 }
  - { offsetInCU: 0x8683, offset: 0x29E76, size: 0x8, addend: 0x0, symName: __ZNSt3__16vectorIiNS_9allocatorIiEEE16__destroy_vectorclB7v160006Ev, symObjAddr: 0x1F04, symBinAddr: 0x10002B850, symSize: 0x264 }
  - { offsetInCU: 0x86A7, offset: 0x29E9A, size: 0x8, addend: 0x0, symName: __ZNSt3__16vectorIiNS_9allocatorIiEEE16__destroy_vectorC2ERS3_, symObjAddr: 0x2168, symBinAddr: 0x10002BAB4, symSize: 0x70 }
  - { offsetInCU: 0x86DE, offset: 0x29ED1, size: 0x8, addend: 0x0, symName: __ZNKSt3__16vectorIiNS_9allocatorIiEEE17__annotate_deleteB7v160006Ev, symObjAddr: 0x21D8, symBinAddr: 0x10002BB24, symSize: 0xCC }
  - { offsetInCU: 0x8702, offset: 0x29EF5, size: 0x8, addend: 0x0, symName: __ZNSt3__16vectorIiNS_9allocatorIiEEE7__clearB7v160006Ev, symObjAddr: 0x22B4, symBinAddr: 0x10002BC00, symSize: 0x64 }
  - { offsetInCU: 0x8726, offset: 0x29F19, size: 0x8, addend: 0x0, symName: __ZNSt3__116allocator_traitsINS_9allocatorIiEEE10deallocateB7v160006ERS2_Pim, symObjAddr: 0x2318, symBinAddr: 0x10002BC64, symSize: 0x34 }
  - { offsetInCU: 0x8767, offset: 0x29F5A, size: 0x8, addend: 0x0, symName: __ZNSt3__16vectorIiNS_9allocatorIiEEE7__allocB7v160006Ev, symObjAddr: 0x234C, symBinAddr: 0x10002BC98, symSize: 0x28 }
  - { offsetInCU: 0x878B, offset: 0x29F7E, size: 0x8, addend: 0x0, symName: __ZNKSt3__16vectorIiNS_9allocatorIiEEE8capacityB7v160006Ev, symObjAddr: 0x2374, symBinAddr: 0x10002BCC0, symSize: 0xBC }
  - { offsetInCU: 0x87AF, offset: 0x29FA2, size: 0x8, addend: 0x0, symName: __ZNKSt3__16vectorIiNS_9allocatorIiEEE31__annotate_contiguous_containerEPKvS5_S5_S5_, symObjAddr: 0x2430, symBinAddr: 0x10002BD7C, symSize: 0x58 }
  - { offsetInCU: 0x880F, offset: 0x2A002, size: 0x8, addend: 0x0, symName: __ZNKSt3__16vectorIiNS_9allocatorIiEEE4dataB7v160006Ev, symObjAddr: 0x2488, symBinAddr: 0x10002BDD4, symSize: 0x64 }
  - { offsetInCU: 0x8833, offset: 0x2A026, size: 0x8, addend: 0x0, symName: __ZNSt3__16vectorIiNS_9allocatorIiEEE22__base_destruct_at_endB7v160006EPi, symObjAddr: 0x2500, symBinAddr: 0x10002BE4C, symSize: 0x114 }
  - { offsetInCU: 0x8875, offset: 0x2A068, size: 0x8, addend: 0x0, symName: __ZNSt3__116allocator_traitsINS_9allocatorIiEEE7destroyB7v160006IivEEvRS2_PT_, symObjAddr: 0x2614, symBinAddr: 0x10002BF60, symSize: 0x2C }
  - { offsetInCU: 0x88B1, offset: 0x2A0A4, size: 0x8, addend: 0x0, symName: __ZNSt3__19allocatorIiE7destroyB7v160006EPi, symObjAddr: 0x2640, symBinAddr: 0x10002BF8C, symSize: 0x14 }
  - { offsetInCU: 0x88E3, offset: 0x2A0D6, size: 0x8, addend: 0x0, symName: __ZNSt3__19allocatorIiE10deallocateB7v160006EPim, symObjAddr: 0x2654, symBinAddr: 0x10002BFA0, symSize: 0x4C }
  - { offsetInCU: 0x8923, offset: 0x2A116, size: 0x8, addend: 0x0, symName: __ZNSt3__117__compressed_pairIPiNS_9allocatorIiEEE6secondB7v160006Ev, symObjAddr: 0x271C, symBinAddr: 0x10002BFEC, symSize: 0x24 }
  - { offsetInCU: 0x8947, offset: 0x2A13A, size: 0x8, addend: 0x0, symName: __ZNSt3__122__compressed_pair_elemINS_9allocatorIiEELi1ELb1EE5__getB7v160006Ev, symObjAddr: 0x2740, symBinAddr: 0x10002C010, symSize: 0x14 }
  - { offsetInCU: 0x896B, offset: 0x2A15E, size: 0x8, addend: 0x0, symName: __ZNKSt3__16vectorIiNS_9allocatorIiEEE9__end_capB7v160006Ev, symObjAddr: 0x2754, symBinAddr: 0x10002C024, symSize: 0x28 }
  - { offsetInCU: 0x898F, offset: 0x2A182, size: 0x8, addend: 0x0, symName: __ZNKSt3__117__compressed_pairIPiNS_9allocatorIiEEE5firstB7v160006Ev, symObjAddr: 0x277C, symBinAddr: 0x10002C04C, symSize: 0x24 }
  - { offsetInCU: 0x89B3, offset: 0x2A1A6, size: 0x8, addend: 0x0, symName: __ZNKSt3__122__compressed_pair_elemIPiLi0ELb0EE5__getB7v160006Ev, symObjAddr: 0x27A0, symBinAddr: 0x10002C070, symSize: 0x14 }
  - { offsetInCU: 0x89D7, offset: 0x2A1CA, size: 0x8, addend: 0x0, symName: __ZNSt3__16vectorIiNS_9allocatorIiEEEC2B7v160006ESt16initializer_listIiE, symObjAddr: 0x27B4, symBinAddr: 0x10002C084, symSize: 0x534 }
  - { offsetInCU: 0x8A39, offset: 0x2A22C, size: 0x8, addend: 0x0, symName: __ZNSt3__117__compressed_pairIPiNS_9allocatorIiEEEC1B7v160006IDnNS_18__default_init_tagEEEOT_OT0_, symObjAddr: 0x2CE8, symBinAddr: 0x10002C5B8, symSize: 0x3C }
  - { offsetInCU: 0x8A8F, offset: 0x2A282, size: 0x8, addend: 0x0, symName: __ZNKSt16initializer_listIiE4sizeB7v160006Ev, symObjAddr: 0x2FAC, symBinAddr: 0x10002C87C, symSize: 0x64 }
  - { offsetInCU: 0x8AB3, offset: 0x2A2A6, size: 0x8, addend: 0x0, symName: __ZNSt3__16vectorIiNS_9allocatorIiEEE11__vallocateB7v160006Em, symObjAddr: 0x3010, symBinAddr: 0x10002C8E0, symSize: 0x420 }
  - { offsetInCU: 0x8AFB, offset: 0x2A2EE, size: 0x8, addend: 0x0, symName: __ZNSt3__16vectorIiNS_9allocatorIiEEE18__construct_at_endIPKiLi0EEEvT_S7_m, symObjAddr: 0x3430, symBinAddr: 0x10002CD00, symSize: 0x380 }
  - { offsetInCU: 0x8B74, offset: 0x2A367, size: 0x8, addend: 0x0, symName: __ZNKSt16initializer_listIiE5beginB7v160006Ev, symObjAddr: 0x37B0, symBinAddr: 0x10002D080, symSize: 0x60 }
  - { offsetInCU: 0x8B98, offset: 0x2A38B, size: 0x8, addend: 0x0, symName: __ZNKSt16initializer_listIiE3endB7v160006Ev, symObjAddr: 0x3810, symBinAddr: 0x10002D0E0, symSize: 0xA8 }
  - { offsetInCU: 0x8BBC, offset: 0x2A3AF, size: 0x8, addend: 0x0, symName: __ZNSt3__128__exception_guard_exceptionsINS_6vectorIiNS_9allocatorIiEEE16__destroy_vectorEE10__completeB7v160006Ev, symObjAddr: 0x38B8, symBinAddr: 0x10002D188, symSize: 0x8C }
  - { offsetInCU: 0x8BE0, offset: 0x2A3D3, size: 0x8, addend: 0x0, symName: __ZNSt3__128__exception_guard_exceptionsINS_6vectorIiNS_9allocatorIiEEE16__destroy_vectorEED1B7v160006Ev, symObjAddr: 0x3944, symBinAddr: 0x10002D214, symSize: 0x2C }
  - { offsetInCU: 0x8C08, offset: 0x2A3FB, size: 0x8, addend: 0x0, symName: __ZNSt3__117__compressed_pairIPiNS_9allocatorIiEEEC2B7v160006IDnNS_18__default_init_tagEEEOT_OT0_, symObjAddr: 0x3970, symBinAddr: 0x10002D240, symSize: 0x40 }
  - { offsetInCU: 0x8C5E, offset: 0x2A451, size: 0x8, addend: 0x0, symName: __ZNSt3__122__compressed_pair_elemIPiLi0ELb0EEC2B7v160006IDnvEEOT_, symObjAddr: 0x39B0, symBinAddr: 0x10002D280, symSize: 0x64 }
  - { offsetInCU: 0x8C9E, offset: 0x2A491, size: 0x8, addend: 0x0, symName: __ZNSt3__122__compressed_pair_elemINS_9allocatorIiEELi1ELb1EEC2B7v160006ENS_18__default_init_tagE, symObjAddr: 0x3A14, symBinAddr: 0x10002D2E4, symSize: 0x2C }
  - { offsetInCU: 0x8CD0, offset: 0x2A4C3, size: 0x8, addend: 0x0, symName: __ZNSt3__19allocatorIiEC2B7v160006Ev, symObjAddr: 0x3A40, symBinAddr: 0x10002D310, symSize: 0x2C }
  - { offsetInCU: 0x8CF8, offset: 0x2A4EB, size: 0x8, addend: 0x0, symName: __ZNSt3__116__non_trivial_ifILb1ENS_9allocatorIiEEEC2B7v160006Ev, symObjAddr: 0x3A6C, symBinAddr: 0x10002D33C, symSize: 0x14 }
  - { offsetInCU: 0x8D20, offset: 0x2A513, size: 0x8, addend: 0x0, symName: __ZNSt3__128__exception_guard_exceptionsINS_6vectorIiNS_9allocatorIiEEE16__destroy_vectorEEC1B7v160006ES5_, symObjAddr: 0x3A80, symBinAddr: 0x10002D350, symSize: 0x238 }
  - { offsetInCU: 0x8D5B, offset: 0x2A54E, size: 0x8, addend: 0x0, symName: __ZNSt3__128__exception_guard_exceptionsINS_6vectorIiNS_9allocatorIiEEE16__destroy_vectorEEC2B7v160006ES5_, symObjAddr: 0x3CB8, symBinAddr: 0x10002D588, symSize: 0x264 }
  - { offsetInCU: 0x8D96, offset: 0x2A589, size: 0x8, addend: 0x0, symName: __ZNKSt3__16vectorIiNS_9allocatorIiEEE8max_sizeEv, symObjAddr: 0x3F1C, symBinAddr: 0x10002D7EC, symSize: 0x2FC }
  - { offsetInCU: 0x8DBD, offset: 0x2A5B0, size: 0x8, addend: 0x0, symName: __ZNKSt3__16vectorIiNS_9allocatorIiEEE20__throw_length_errorB7v160006Ev, symObjAddr: 0x4218, symBinAddr: 0x10002DAE8, symSize: 0x20 }
  - { offsetInCU: 0x8DE1, offset: 0x2A5D4, size: 0x8, addend: 0x0, symName: __ZNSt3__16vectorIiNS_9allocatorIiEEE9__end_capB7v160006Ev, symObjAddr: 0x44C4, symBinAddr: 0x10002DD94, symSize: 0x28 }
  - { offsetInCU: 0x8E05, offset: 0x2A5F8, size: 0x8, addend: 0x0, symName: __ZNKSt3__16vectorIiNS_9allocatorIiEEE14__annotate_newB7v160006Em, symObjAddr: 0x44EC, symBinAddr: 0x10002DDBC, symSize: 0xC0 }
  - { offsetInCU: 0x8E42, offset: 0x2A635, size: 0x8, addend: 0x0, symName: __ZNSt3__116allocator_traitsINS_9allocatorIiEEE8max_sizeB7v160006IS2_vEEmRKS2_, symObjAddr: 0x45D8, symBinAddr: 0x10002DE7C, symSize: 0x24 }
  - { offsetInCU: 0x8E6F, offset: 0x2A662, size: 0x8, addend: 0x0, symName: __ZNKSt3__16vectorIiNS_9allocatorIiEEE7__allocB7v160006Ev, symObjAddr: 0x45FC, symBinAddr: 0x10002DEA0, symSize: 0x28 }
  - { offsetInCU: 0x8E93, offset: 0x2A686, size: 0x8, addend: 0x0, symName: __ZNKSt3__19allocatorIiE8max_sizeB7v160006Ev, symObjAddr: 0x48DC, symBinAddr: 0x10002DEC8, symSize: 0x14 }
  - { offsetInCU: 0x8EB7, offset: 0x2A6AA, size: 0x8, addend: 0x0, symName: __ZNKSt3__117__compressed_pairIPiNS_9allocatorIiEEE6secondB7v160006Ev, symObjAddr: 0x48F0, symBinAddr: 0x10002DEDC, symSize: 0x24 }
  - { offsetInCU: 0x8EDB, offset: 0x2A6CE, size: 0x8, addend: 0x0, symName: __ZNKSt3__122__compressed_pair_elemINS_9allocatorIiEELi1ELb1EE5__getB7v160006Ev, symObjAddr: 0x4914, symBinAddr: 0x10002DF00, symSize: 0x14 }
  - { offsetInCU: 0x8EFF, offset: 0x2A6F2, size: 0x8, addend: 0x0, symName: __ZNSt3__19allocatorIiE8allocateB7v160006Em, symObjAddr: 0x4A58, symBinAddr: 0x10002DF14, symSize: 0x5C }
  - { offsetInCU: 0x8F31, offset: 0x2A724, size: 0x8, addend: 0x0, symName: __ZNSt3__117__compressed_pairIPiNS_9allocatorIiEEE5firstB7v160006Ev, symObjAddr: 0x4B38, symBinAddr: 0x10002DF70, symSize: 0x24 }
  - { offsetInCU: 0x8F55, offset: 0x2A748, size: 0x8, addend: 0x0, symName: __ZNSt3__122__compressed_pair_elemIPiLi0ELb0EE5__getB7v160006Ev, symObjAddr: 0x4B5C, symBinAddr: 0x10002DF94, symSize: 0x14 }
  - { offsetInCU: 0x8F92, offset: 0x2A785, size: 0x8, addend: 0x0, symName: __ZNSt3__16vectorIiNS_9allocatorIiEEE21_ConstructTransactionC1B7v160006ERS3_m, symObjAddr: 0x4B70, symBinAddr: 0x10002DFA8, symSize: 0x3C }
  - { offsetInCU: 0x8FD8, offset: 0x2A7CB, size: 0x8, addend: 0x0, symName: __ZNSt3__16vectorIiNS_9allocatorIiEEE21_ConstructTransactionD1B7v160006Ev, symObjAddr: 0x4BE4, symBinAddr: 0x10002E01C, symSize: 0x2C }
  - { offsetInCU: 0x9000, offset: 0x2A7F3, size: 0x8, addend: 0x0, symName: __ZNSt3__16vectorIiNS_9allocatorIiEEE21_ConstructTransactionC2B7v160006ERS3_m, symObjAddr: 0x4C10, symBinAddr: 0x10002E048, symSize: 0x1D0 }
  - { offsetInCU: 0x9046, offset: 0x2A839, size: 0x8, addend: 0x0, symName: __ZNKSt3__16vectorIiNS_9allocatorIiEEE19__annotate_increaseB7v160006Em, symObjAddr: 0x4DE0, symBinAddr: 0x10002E218, symSize: 0xD8 }
  - { offsetInCU: 0x909C, offset: 0x2A88F, size: 0x8, addend: 0x0, symName: __ZNKSt3__114__copy_trivialclB7v160006IKiiLi0EEENS_4pairIPT_PT0_EES5_S5_S7_, symObjAddr: 0x5E70, symBinAddr: 0x10002F2A8, symSize: 0x230 }
  - { offsetInCU: 0x9124, offset: 0x2A917, size: 0x8, addend: 0x0, symName: __ZNSt3__14pairIPKiS2_EC1B7v160006IS2_S2_LPv0EEEOT_OT0_, symObjAddr: 0x6574, symBinAddr: 0x10002F9AC, symSize: 0x3C }
  - { offsetInCU: 0x9180, offset: 0x2A973, size: 0x8, addend: 0x0, symName: __ZNSt3__14pairIPKiS2_EC2B7v160006IS2_S2_LPv0EEEOT_OT0_, symObjAddr: 0x65B0, symBinAddr: 0x10002F9E8, symSize: 0x138 }
  - { offsetInCU: 0x91DC, offset: 0x2A9CF, size: 0x8, addend: 0x0, symName: __ZNSt3__118__unwrap_iter_implIPKiLb1EE8__unwrapB7v160006ES2_, symObjAddr: 0x66E8, symBinAddr: 0x10002FB20, symSize: 0x24 }
  - { offsetInCU: 0x9208, offset: 0x2A9FB, size: 0x8, addend: 0x0, symName: __ZNSt3__14pairIPKiPiEC1B7v160006IRS2_S3_LPv0EEEOT_OT0_, symObjAddr: 0x6CE4, symBinAddr: 0x10003011C, symSize: 0x3C }
  - { offsetInCU: 0x9264, offset: 0x2AA57, size: 0x8, addend: 0x0, symName: __ZNSt3__14pairIPKiPiEC2B7v160006IRS2_S3_LPv0EEEOT_OT0_, symObjAddr: 0x6D20, symBinAddr: 0x100030158, symSize: 0x138 }
  - { offsetInCU: 0x92C0, offset: 0x2AAB3, size: 0x8, addend: 0x0, symName: __ZNSt3__118__unwrap_iter_implIPiLb1EE8__unwrapB7v160006ES1_, symObjAddr: 0x6E58, symBinAddr: 0x100030290, symSize: 0x24 }
  - { offsetInCU: 0x92E2, offset: 0x2AAD5, size: 0x8, addend: 0x0, symName: __ZNSt3__14pairIPKiPiEC1B7v160006IS2_S3_LPv0EEEOT_OT0_, symObjAddr: 0x6E7C, symBinAddr: 0x1000302B4, symSize: 0x3C }
  - { offsetInCU: 0x933E, offset: 0x2AB31, size: 0x8, addend: 0x0, symName: __ZNSt3__14pairIPKiPiEC2B7v160006IS2_S3_LPv0EEEOT_OT0_, symObjAddr: 0x6EB8, symBinAddr: 0x1000302F0, symSize: 0x138 }
  - { offsetInCU: 0x939A, offset: 0x2AB8D, size: 0x8, addend: 0x0, symName: __ZNSt3__118__unwrap_iter_implIPKiLb1EE8__rewrapB7v160006ES2_S2_, symObjAddr: 0x7038, symBinAddr: 0x100030470, symSize: 0x50 }
  - { offsetInCU: 0x93CA, offset: 0x2ABBD, size: 0x8, addend: 0x0, symName: __ZNSt3__118__unwrap_iter_implIPiLb1EE8__rewrapB7v160006ES1_S1_, symObjAddr: 0x7088, symBinAddr: 0x1000304C0, symSize: 0x50 }
  - { offsetInCU: 0x93FA, offset: 0x2ABED, size: 0x8, addend: 0x0, symName: __ZNSt3__16vectorIiNS_9allocatorIiEEE21_ConstructTransactionD2B7v160006Ev, symObjAddr: 0x70D8, symBinAddr: 0x100030510, symSize: 0x278 }
  - { offsetInCU: 0x9422, offset: 0x2AC15, size: 0x8, addend: 0x0, symName: __ZNKSt3__16vectorIiNS_9allocatorIiEEE17__annotate_shrinkB7v160006Em, symObjAddr: 0x7350, symBinAddr: 0x100030788, symSize: 0xC8 }
  - { offsetInCU: 0x9455, offset: 0x2AC48, size: 0x8, addend: 0x0, symName: __ZNSt3__128__exception_guard_exceptionsINS_6vectorIiNS_9allocatorIiEEE16__destroy_vectorEED2B7v160006Ev, symObjAddr: 0x7418, symBinAddr: 0x100030850, symSize: 0xBC }
  - { offsetInCU: 0x947D, offset: 0x2AC70, size: 0x8, addend: 0x0, symName: __ZNSt3__16vectorINS0_IiNS_9allocatorIiEEEENS1_IS3_EEEC2B7v160006ESt16initializer_listIS3_E, symObjAddr: 0x74D4, symBinAddr: 0x10003090C, symSize: 0x534 }
  - { offsetInCU: 0x94D5, offset: 0x2ACC8, size: 0x8, addend: 0x0, symName: __ZNSt3__117__compressed_pairIPNS_6vectorIiNS_9allocatorIiEEEENS2_IS4_EEEC1B7v160006IDnNS_18__default_init_tagEEEOT_OT0_, symObjAddr: 0x7A08, symBinAddr: 0x100030E40, symSize: 0x3C }
  - { offsetInCU: 0x952B, offset: 0x2AD1E, size: 0x8, addend: 0x0, symName: __ZNSt3__16vectorINS0_IiNS_9allocatorIiEEEENS1_IS3_EEE16__destroy_vectorC1ERS5_, symObjAddr: 0x7CBC, symBinAddr: 0x1000310F4, symSize: 0x34 }
  - { offsetInCU: 0x9562, offset: 0x2AD55, size: 0x8, addend: 0x0, symName: __ZNKSt16initializer_listINSt3__16vectorIiNS0_9allocatorIiEEEEE4sizeB7v160006Ev, symObjAddr: 0x7D00, symBinAddr: 0x100031138, symSize: 0x64 }
  - { offsetInCU: 0x9586, offset: 0x2AD79, size: 0x8, addend: 0x0, symName: __ZNSt3__16vectorINS0_IiNS_9allocatorIiEEEENS1_IS3_EEE11__vallocateB7v160006Em, symObjAddr: 0x7D64, symBinAddr: 0x10003119C, symSize: 0x428 }
  - { offsetInCU: 0x95CE, offset: 0x2ADC1, size: 0x8, addend: 0x0, symName: __ZNSt3__16vectorINS0_IiNS_9allocatorIiEEEENS1_IS3_EEE18__construct_at_endIPKS3_Li0EEEvT_S9_m, symObjAddr: 0x818C, symBinAddr: 0x1000315C4, symSize: 0x380 }
  - { offsetInCU: 0x9647, offset: 0x2AE3A, size: 0x8, addend: 0x0, symName: __ZNKSt16initializer_listINSt3__16vectorIiNS0_9allocatorIiEEEEE5beginB7v160006Ev, symObjAddr: 0x850C, symBinAddr: 0x100031944, symSize: 0x60 }
  - { offsetInCU: 0x966B, offset: 0x2AE5E, size: 0x8, addend: 0x0, symName: __ZNKSt16initializer_listINSt3__16vectorIiNS0_9allocatorIiEEEEE3endB7v160006Ev, symObjAddr: 0x856C, symBinAddr: 0x1000319A4, symSize: 0xB0 }
  - { offsetInCU: 0x968F, offset: 0x2AE82, size: 0x8, addend: 0x0, symName: __ZNSt3__128__exception_guard_exceptionsINS_6vectorINS1_IiNS_9allocatorIiEEEENS2_IS4_EEE16__destroy_vectorEE10__completeB7v160006Ev, symObjAddr: 0x861C, symBinAddr: 0x100031A54, symSize: 0x8C }
  - { offsetInCU: 0x96B3, offset: 0x2AEA6, size: 0x8, addend: 0x0, symName: __ZNSt3__128__exception_guard_exceptionsINS_6vectorINS1_IiNS_9allocatorIiEEEENS2_IS4_EEE16__destroy_vectorEED1B7v160006Ev, symObjAddr: 0x86A8, symBinAddr: 0x100031AE0, symSize: 0x2C }
  - { offsetInCU: 0x96DB, offset: 0x2AECE, size: 0x8, addend: 0x0, symName: __ZNSt3__117__compressed_pairIPNS_6vectorIiNS_9allocatorIiEEEENS2_IS4_EEEC2B7v160006IDnNS_18__default_init_tagEEEOT_OT0_, symObjAddr: 0x86D4, symBinAddr: 0x100031B0C, symSize: 0x40 }
  - { offsetInCU: 0x9731, offset: 0x2AF24, size: 0x8, addend: 0x0, symName: __ZNSt3__122__compressed_pair_elemIPNS_6vectorIiNS_9allocatorIiEEEELi0ELb0EEC2B7v160006IDnvEEOT_, symObjAddr: 0x8714, symBinAddr: 0x100031B4C, symSize: 0x64 }
  - { offsetInCU: 0x9771, offset: 0x2AF64, size: 0x8, addend: 0x0, symName: __ZNSt3__122__compressed_pair_elemINS_9allocatorINS_6vectorIiNS1_IiEEEEEELi1ELb1EEC2B7v160006ENS_18__default_init_tagE, symObjAddr: 0x8778, symBinAddr: 0x100031BB0, symSize: 0x2C }
  - { offsetInCU: 0x97A3, offset: 0x2AF96, size: 0x8, addend: 0x0, symName: __ZNSt3__19allocatorINS_6vectorIiNS0_IiEEEEEC2B7v160006Ev, symObjAddr: 0x87A4, symBinAddr: 0x100031BDC, symSize: 0x2C }
  - { offsetInCU: 0x97CB, offset: 0x2AFBE, size: 0x8, addend: 0x0, symName: __ZNSt3__116__non_trivial_ifILb1ENS_9allocatorINS_6vectorIiNS1_IiEEEEEEEC2B7v160006Ev, symObjAddr: 0x87D0, symBinAddr: 0x100031C08, symSize: 0x14 }
  - { offsetInCU: 0x97F3, offset: 0x2AFE6, size: 0x8, addend: 0x0, symName: __ZNSt3__128__exception_guard_exceptionsINS_6vectorINS1_IiNS_9allocatorIiEEEENS2_IS4_EEE16__destroy_vectorEEC1B7v160006ES7_, symObjAddr: 0x87E4, symBinAddr: 0x100031C1C, symSize: 0x238 }
  - { offsetInCU: 0x982E, offset: 0x2B021, size: 0x8, addend: 0x0, symName: __ZNSt3__128__exception_guard_exceptionsINS_6vectorINS1_IiNS_9allocatorIiEEEENS2_IS4_EEE16__destroy_vectorEEC2B7v160006ES7_, symObjAddr: 0x8A1C, symBinAddr: 0x100031E54, symSize: 0x264 }
  - { offsetInCU: 0x9869, offset: 0x2B05C, size: 0x8, addend: 0x0, symName: __ZNSt3__16vectorINS0_IiNS_9allocatorIiEEEENS1_IS3_EEE16__destroy_vectorC2ERS5_, symObjAddr: 0x8C80, symBinAddr: 0x1000320B8, symSize: 0x70 }
  - { offsetInCU: 0x98A0, offset: 0x2B093, size: 0x8, addend: 0x0, symName: __ZNKSt3__16vectorINS0_IiNS_9allocatorIiEEEENS1_IS3_EEE8max_sizeEv, symObjAddr: 0x8CF0, symBinAddr: 0x100032128, symSize: 0x2FC }
  - { offsetInCU: 0x98C7, offset: 0x2B0BA, size: 0x8, addend: 0x0, symName: __ZNKSt3__16vectorINS0_IiNS_9allocatorIiEEEENS1_IS3_EEE20__throw_length_errorB7v160006Ev, symObjAddr: 0x8FEC, symBinAddr: 0x100032424, symSize: 0x20 }
  - { offsetInCU: 0x98EB, offset: 0x2B0DE, size: 0x8, addend: 0x0, symName: __ZNSt3__16vectorINS0_IiNS_9allocatorIiEEEENS1_IS3_EEE7__allocB7v160006Ev, symObjAddr: 0x9298, symBinAddr: 0x1000326D0, symSize: 0x28 }
  - { offsetInCU: 0x990F, offset: 0x2B102, size: 0x8, addend: 0x0, symName: __ZNSt3__16vectorINS0_IiNS_9allocatorIiEEEENS1_IS3_EEE9__end_capB7v160006Ev, symObjAddr: 0x92C0, symBinAddr: 0x1000326F8, symSize: 0x28 }
  - { offsetInCU: 0x9933, offset: 0x2B126, size: 0x8, addend: 0x0, symName: __ZNKSt3__16vectorINS0_IiNS_9allocatorIiEEEENS1_IS3_EEE14__annotate_newB7v160006Em, symObjAddr: 0x92E8, symBinAddr: 0x100032720, symSize: 0xDC }
  - { offsetInCU: 0x9970, offset: 0x2B163, size: 0x8, addend: 0x0, symName: __ZNSt3__116allocator_traitsINS_9allocatorINS_6vectorIiNS1_IiEEEEEEE8max_sizeB7v160006IS5_vEEmRKS5_, symObjAddr: 0x93C4, symBinAddr: 0x1000327FC, symSize: 0x24 }
  - { offsetInCU: 0x999D, offset: 0x2B190, size: 0x8, addend: 0x0, symName: __ZNKSt3__16vectorINS0_IiNS_9allocatorIiEEEENS1_IS3_EEE7__allocB7v160006Ev, symObjAddr: 0x93E8, symBinAddr: 0x100032820, symSize: 0x28 }
  - { offsetInCU: 0x99C1, offset: 0x2B1B4, size: 0x8, addend: 0x0, symName: __ZNKSt3__19allocatorINS_6vectorIiNS0_IiEEEEE8max_sizeB7v160006Ev, symObjAddr: 0x9410, symBinAddr: 0x100032848, symSize: 0x18 }
  - { offsetInCU: 0x99E5, offset: 0x2B1D8, size: 0x8, addend: 0x0, symName: __ZNKSt3__117__compressed_pairIPNS_6vectorIiNS_9allocatorIiEEEENS2_IS4_EEE6secondB7v160006Ev, symObjAddr: 0x9428, symBinAddr: 0x100032860, symSize: 0x24 }
  - { offsetInCU: 0x9A09, offset: 0x2B1FC, size: 0x8, addend: 0x0, symName: __ZNKSt3__122__compressed_pair_elemINS_9allocatorINS_6vectorIiNS1_IiEEEEEELi1ELb1EE5__getB7v160006Ev, symObjAddr: 0x944C, symBinAddr: 0x100032884, symSize: 0x14 }
  - { offsetInCU: 0x9A2D, offset: 0x2B220, size: 0x8, addend: 0x0, symName: __ZNSt3__19allocatorINS_6vectorIiNS0_IiEEEEE8allocateB7v160006Em, symObjAddr: 0x9460, symBinAddr: 0x100032898, symSize: 0x60 }
  - { offsetInCU: 0x9A5F, offset: 0x2B252, size: 0x8, addend: 0x0, symName: __ZNSt3__117__compressed_pairIPNS_6vectorIiNS_9allocatorIiEEEENS2_IS4_EEE6secondB7v160006Ev, symObjAddr: 0x94C0, symBinAddr: 0x1000328F8, symSize: 0x24 }
  - { offsetInCU: 0x9A83, offset: 0x2B276, size: 0x8, addend: 0x0, symName: __ZNSt3__122__compressed_pair_elemINS_9allocatorINS_6vectorIiNS1_IiEEEEEELi1ELb1EE5__getB7v160006Ev, symObjAddr: 0x94E4, symBinAddr: 0x10003291C, symSize: 0x14 }
  - { offsetInCU: 0x9AA7, offset: 0x2B29A, size: 0x8, addend: 0x0, symName: __ZNSt3__117__compressed_pairIPNS_6vectorIiNS_9allocatorIiEEEENS2_IS4_EEE5firstB7v160006Ev, symObjAddr: 0x94F8, symBinAddr: 0x100032930, symSize: 0x24 }
  - { offsetInCU: 0x9ACB, offset: 0x2B2BE, size: 0x8, addend: 0x0, symName: __ZNSt3__122__compressed_pair_elemIPNS_6vectorIiNS_9allocatorIiEEEELi0ELb0EE5__getB7v160006Ev, symObjAddr: 0x951C, symBinAddr: 0x100032954, symSize: 0x14 }
  - { offsetInCU: 0x9AEF, offset: 0x2B2E2, size: 0x8, addend: 0x0, symName: __ZNKSt3__16vectorINS0_IiNS_9allocatorIiEEEENS1_IS3_EEE31__annotate_contiguous_containerEPKvS7_S7_S7_, symObjAddr: 0x9530, symBinAddr: 0x100032968, symSize: 0x58 }
  - { offsetInCU: 0x9B4F, offset: 0x2B342, size: 0x8, addend: 0x0, symName: __ZNKSt3__16vectorINS0_IiNS_9allocatorIiEEEENS1_IS3_EEE4dataB7v160006Ev, symObjAddr: 0x9588, symBinAddr: 0x1000329C0, symSize: 0x64 }
  - { offsetInCU: 0x9B73, offset: 0x2B366, size: 0x8, addend: 0x0, symName: __ZNKSt3__16vectorINS0_IiNS_9allocatorIiEEEENS1_IS3_EEE8capacityB7v160006Ev, symObjAddr: 0x95EC, symBinAddr: 0x100032A24, symSize: 0xBC }
  - { offsetInCU: 0x9B97, offset: 0x2B38A, size: 0x8, addend: 0x0, symName: __ZNKSt3__16vectorINS0_IiNS_9allocatorIiEEEENS1_IS3_EEE9__end_capB7v160006Ev, symObjAddr: 0x96BC, symBinAddr: 0x100032AF4, symSize: 0x28 }
  - { offsetInCU: 0x9BBB, offset: 0x2B3AE, size: 0x8, addend: 0x0, symName: __ZNKSt3__117__compressed_pairIPNS_6vectorIiNS_9allocatorIiEEEENS2_IS4_EEE5firstB7v160006Ev, symObjAddr: 0x96E4, symBinAddr: 0x100032B1C, symSize: 0x24 }
  - { offsetInCU: 0x9BDF, offset: 0x2B3D2, size: 0x8, addend: 0x0, symName: __ZNKSt3__122__compressed_pair_elemIPNS_6vectorIiNS_9allocatorIiEEEELi0ELb0EE5__getB7v160006Ev, symObjAddr: 0x9708, symBinAddr: 0x100032B40, symSize: 0x14 }
  - { offsetInCU: 0x9C1C, offset: 0x2B40F, size: 0x8, addend: 0x0, symName: __ZNSt3__16vectorINS0_IiNS_9allocatorIiEEEENS1_IS3_EEE21_ConstructTransactionC1B7v160006ERS5_m, symObjAddr: 0x971C, symBinAddr: 0x100032B54, symSize: 0x3C }
  - { offsetInCU: 0x9C62, offset: 0x2B455, size: 0x8, addend: 0x0, symName: __ZNSt3__16vectorINS0_IiNS_9allocatorIiEEEENS1_IS3_EEE21_ConstructTransactionD1B7v160006Ev, symObjAddr: 0x9C78, symBinAddr: 0x1000330B0, symSize: 0x2C }
  - { offsetInCU: 0x9C8A, offset: 0x2B47D, size: 0x8, addend: 0x0, symName: __ZNSt3__16vectorINS0_IiNS_9allocatorIiEEEENS1_IS3_EEE21_ConstructTransactionC2B7v160006ERS5_m, symObjAddr: 0x9CA4, symBinAddr: 0x1000330DC, symSize: 0x1D8 }
  - { offsetInCU: 0x9CD0, offset: 0x2B4C3, size: 0x8, addend: 0x0, symName: __ZNKSt3__16vectorINS0_IiNS_9allocatorIiEEEENS1_IS3_EEE19__annotate_increaseB7v160006Em, symObjAddr: 0x9E7C, symBinAddr: 0x1000332B4, symSize: 0xF8 }
  - { offsetInCU: 0x9D03, offset: 0x2B4F6, size: 0x8, addend: 0x0, symName: __ZNSt3__129_AllocatorDestroyRangeReverseINS_9allocatorINS_6vectorIiNS1_IiEEEEEEPS4_EC1B7v160006ERS5_RS6_S9_, symObjAddr: 0xA16C, symBinAddr: 0x1000335A4, symSize: 0x44 }
  - { offsetInCU: 0x9D58, offset: 0x2B54B, size: 0x8, addend: 0x0, symName: __ZNSt3__116allocator_traitsINS_9allocatorINS_6vectorIiNS1_IiEEEEEEE9constructB7v160006IS4_JRKS4_EvEEvRS5_PT_DpOT0_, symObjAddr: 0xA1B0, symBinAddr: 0x1000335E8, symSize: 0x34 }
  - { offsetInCU: 0x9DAE, offset: 0x2B5A1, size: 0x8, addend: 0x0, symName: __ZNSt3__128__exception_guard_exceptionsINS_29_AllocatorDestroyRangeReverseINS_9allocatorINS_6vectorIiNS2_IiEEEEEEPS5_EEE10__completeB7v160006Ev, symObjAddr: 0xA1E4, symBinAddr: 0x10003361C, symSize: 0x8C }
  - { offsetInCU: 0x9DD2, offset: 0x2B5C5, size: 0x8, addend: 0x0, symName: __ZNSt3__128__exception_guard_exceptionsINS_29_AllocatorDestroyRangeReverseINS_9allocatorINS_6vectorIiNS2_IiEEEEEEPS5_EEED1B7v160006Ev, symObjAddr: 0xA270, symBinAddr: 0x1000336A8, symSize: 0x2C }
  - { offsetInCU: 0x9DFA, offset: 0x2B5ED, size: 0x8, addend: 0x0, symName: __ZNSt3__128__exception_guard_exceptionsINS_29_AllocatorDestroyRangeReverseINS_9allocatorINS_6vectorIiNS2_IiEEEEEEPS5_EEEC1B7v160006ES8_, symObjAddr: 0xA29C, symBinAddr: 0x1000336D4, symSize: 0x34 }
  - { offsetInCU: 0x9E31, offset: 0x2B624, size: 0x8, addend: 0x0, symName: __ZNSt3__128__exception_guard_exceptionsINS_29_AllocatorDestroyRangeReverseINS_9allocatorINS_6vectorIiNS2_IiEEEEEEPS5_EEEC2B7v160006ES8_, symObjAddr: 0xA2D0, symBinAddr: 0x100033708, symSize: 0xA4 }
  - { offsetInCU: 0x9E68, offset: 0x2B65B, size: 0x8, addend: 0x0, symName: __ZNSt3__129_AllocatorDestroyRangeReverseINS_9allocatorINS_6vectorIiNS1_IiEEEEEEPS4_EC2B7v160006ERS5_RS6_S9_, symObjAddr: 0xA374, symBinAddr: 0x1000337AC, symSize: 0x104 }
  - { offsetInCU: 0x9EBD, offset: 0x2B6B0, size: 0x8, addend: 0x0, symName: __ZNSt3__19allocatorINS_6vectorIiNS0_IiEEEEE9constructB7v160006IS3_JRKS3_EEEvPT_DpOT0_, symObjAddr: 0xA478, symBinAddr: 0x1000338B0, symSize: 0x30 }
  - { offsetInCU: 0x9F11, offset: 0x2B704, size: 0x8, addend: 0x0, symName: __ZNSt3__16vectorIiNS_9allocatorIiEEEC1ERKS3_, symObjAddr: 0xA4A8, symBinAddr: 0x1000338E0, symSize: 0x34 }
  - { offsetInCU: 0x9F4A, offset: 0x2B73D, size: 0x8, addend: 0x0, symName: __ZNSt3__16vectorIiNS_9allocatorIiEEEC2ERKS3_, symObjAddr: 0xA4DC, symBinAddr: 0x100033914, symSize: 0x538 }
  - { offsetInCU: 0x9FAF, offset: 0x2B7A2, size: 0x8, addend: 0x0, symName: __ZNSt3__116allocator_traitsINS_9allocatorIiEEE37select_on_container_copy_constructionB7v160006IS2_vvEES2_RKS2_, symObjAddr: 0xAA14, symBinAddr: 0x100033E4C, symSize: 0x10 }
  - { offsetInCU: 0x9FE2, offset: 0x2B7D5, size: 0x8, addend: 0x0, symName: __ZNSt3__117__compressed_pairIPiNS_9allocatorIiEEEC1B7v160006IDnS3_EEOT_OT0_, symObjAddr: 0xAA24, symBinAddr: 0x100033E5C, symSize: 0x3C }
  - { offsetInCU: 0xA038, offset: 0x2B82B, size: 0x8, addend: 0x0, symName: __ZNSt3__16vectorIiNS_9allocatorIiEEE18__construct_at_endIPiLi0EEEvT_S6_m, symObjAddr: 0xAA60, symBinAddr: 0x100033E98, symSize: 0x380 }
  - { offsetInCU: 0xA0B1, offset: 0x2B8A4, size: 0x8, addend: 0x0, symName: __ZNSt3__117__compressed_pairIPiNS_9allocatorIiEEEC2B7v160006IDnS3_EEOT_OT0_, symObjAddr: 0xADE0, symBinAddr: 0x100034218, symSize: 0x44 }
  - { offsetInCU: 0xA107, offset: 0x2B8FA, size: 0x8, addend: 0x0, symName: __ZNSt3__122__compressed_pair_elemINS_9allocatorIiEELi1ELb1EEC2B7v160006IS2_vEEOT_, symObjAddr: 0xAE24, symBinAddr: 0x10003425C, symSize: 0x18 }
  - { offsetInCU: 0xA147, offset: 0x2B93A, size: 0x8, addend: 0x0, symName: __ZNSt3__129_AllocatorDestroyRangeReverseINS_9allocatorIiEEPiEC1B7v160006ERS2_RS3_S6_, symObjAddr: 0xB554, symBinAddr: 0x10003498C, symSize: 0x44 }
  - { offsetInCU: 0xA19C, offset: 0x2B98F, size: 0x8, addend: 0x0, symName: __ZNSt3__116allocator_traitsINS_9allocatorIiEEE9constructB7v160006IiJRiEvEEvRS2_PT_DpOT0_, symObjAddr: 0xB598, symBinAddr: 0x1000349D0, symSize: 0x34 }
  - { offsetInCU: 0xA1F2, offset: 0x2B9E5, size: 0x8, addend: 0x0, symName: __ZNSt3__128__exception_guard_exceptionsINS_29_AllocatorDestroyRangeReverseINS_9allocatorIiEEPiEEE10__completeB7v160006Ev, symObjAddr: 0xB5CC, symBinAddr: 0x100034A04, symSize: 0x8C }
  - { offsetInCU: 0xA216, offset: 0x2BA09, size: 0x8, addend: 0x0, symName: __ZNSt3__128__exception_guard_exceptionsINS_29_AllocatorDestroyRangeReverseINS_9allocatorIiEEPiEEED1B7v160006Ev, symObjAddr: 0xB658, symBinAddr: 0x100034A90, symSize: 0x2C }
  - { offsetInCU: 0xA23E, offset: 0x2BA31, size: 0x8, addend: 0x0, symName: __ZNSt3__128__exception_guard_exceptionsINS_29_AllocatorDestroyRangeReverseINS_9allocatorIiEEPiEEEC1B7v160006ES5_, symObjAddr: 0xB684, symBinAddr: 0x100034ABC, symSize: 0x34 }
  - { offsetInCU: 0xA275, offset: 0x2BA68, size: 0x8, addend: 0x0, symName: __ZNSt3__128__exception_guard_exceptionsINS_29_AllocatorDestroyRangeReverseINS_9allocatorIiEEPiEEEC2B7v160006ES5_, symObjAddr: 0xB6B8, symBinAddr: 0x100034AF0, symSize: 0xA4 }
  - { offsetInCU: 0xA2AC, offset: 0x2BA9F, size: 0x8, addend: 0x0, symName: __ZNSt3__129_AllocatorDestroyRangeReverseINS_9allocatorIiEEPiEC2B7v160006ERS2_RS3_S6_, symObjAddr: 0xB75C, symBinAddr: 0x100034B94, symSize: 0x104 }
  - { offsetInCU: 0xA301, offset: 0x2BAF4, size: 0x8, addend: 0x0, symName: __ZNSt3__19allocatorIiE9constructB7v160006IiJRiEEEvPT_DpOT0_, symObjAddr: 0xB860, symBinAddr: 0x100034C98, symSize: 0x104 }
  - { offsetInCU: 0xA355, offset: 0x2BB48, size: 0x8, addend: 0x0, symName: __ZNSt3__128__exception_guard_exceptionsINS_29_AllocatorDestroyRangeReverseINS_9allocatorIiEEPiEEED2B7v160006Ev, symObjAddr: 0xB964, symBinAddr: 0x100034D9C, symSize: 0xBC }
  - { offsetInCU: 0xA37D, offset: 0x2BB70, size: 0x8, addend: 0x0, symName: __ZNKSt3__129_AllocatorDestroyRangeReverseINS_9allocatorIiEEPiEclB7v160006Ev, symObjAddr: 0xBA20, symBinAddr: 0x100034E58, symSize: 0x39C }
  - { offsetInCU: 0xA3A2, offset: 0x2BB95, size: 0x8, addend: 0x0, symName: __ZNSt3__116reverse_iteratorIPiEC1B7v160006ES1_, symObjAddr: 0xC074, symBinAddr: 0x1000354AC, symSize: 0x34 }
  - { offsetInCU: 0xA3D8, offset: 0x2BBCB, size: 0x8, addend: 0x0, symName: __ZNSt3__116reverse_iteratorIPiEppB7v160006Ev, symObjAddr: 0xC114, symBinAddr: 0x10003554C, symSize: 0x6C }
  - { offsetInCU: 0xA3FC, offset: 0x2BBEF, size: 0x8, addend: 0x0, symName: __ZNKSt3__116reverse_iteratorIPiE4baseB7v160006Ev, symObjAddr: 0xC180, symBinAddr: 0x1000355B8, symSize: 0x64 }
  - { offsetInCU: 0xA425, offset: 0x2BC18, size: 0x8, addend: 0x0, symName: __ZNSt3__119__to_address_helperINS_16reverse_iteratorIPiEEvE6__callB7v160006ERKS3_, symObjAddr: 0xC1E4, symBinAddr: 0x10003561C, symSize: 0x44 }
  - { offsetInCU: 0xA447, offset: 0x2BC3A, size: 0x8, addend: 0x0, symName: __ZNKSt3__116reverse_iteratorIPiEptB7v160006Ev, symObjAddr: 0xC228, symBinAddr: 0x100035660, symSize: 0x24 }
  - { offsetInCU: 0xA46B, offset: 0x2BC5E, size: 0x8, addend: 0x0, symName: __ZNKSt3__116reverse_iteratorIPiEdeB7v160006Ev, symObjAddr: 0xC24C, symBinAddr: 0x100035684, symSize: 0x74 }
  - { offsetInCU: 0xA49D, offset: 0x2BC90, size: 0x8, addend: 0x0, symName: __ZNSt3__116reverse_iteratorIPiEC2B7v160006ES1_, symObjAddr: 0xC2C0, symBinAddr: 0x1000356F8, symSize: 0xB8 }
  - { offsetInCU: 0xA4D3, offset: 0x2BCC6, size: 0x8, addend: 0x0, symName: __ZNSt3__128__exception_guard_exceptionsINS_29_AllocatorDestroyRangeReverseINS_9allocatorINS_6vectorIiNS2_IiEEEEEEPS5_EEED2B7v160006Ev, symObjAddr: 0xC378, symBinAddr: 0x1000357B0, symSize: 0xBC }
  - { offsetInCU: 0xA4FB, offset: 0x2BCEE, size: 0x8, addend: 0x0, symName: __ZNKSt3__129_AllocatorDestroyRangeReverseINS_9allocatorINS_6vectorIiNS1_IiEEEEEEPS4_EclB7v160006Ev, symObjAddr: 0xC434, symBinAddr: 0x10003586C, symSize: 0x39C }
  - { offsetInCU: 0xA520, offset: 0x2BD13, size: 0x8, addend: 0x0, symName: __ZNSt3__116reverse_iteratorIPNS_6vectorIiNS_9allocatorIiEEEEEC1B7v160006ES5_, symObjAddr: 0xCA88, symBinAddr: 0x100035EC0, symSize: 0x34 }
  - { offsetInCU: 0xA556, offset: 0x2BD49, size: 0x8, addend: 0x0, symName: __ZNSt3__116allocator_traitsINS_9allocatorINS_6vectorIiNS1_IiEEEEEEE7destroyB7v160006IS4_vEEvRS5_PT_, symObjAddr: 0xCB04, symBinAddr: 0x100035F3C, symSize: 0x2C }
  - { offsetInCU: 0xA592, offset: 0x2BD85, size: 0x8, addend: 0x0, symName: __ZNSt3__116reverse_iteratorIPNS_6vectorIiNS_9allocatorIiEEEEEppB7v160006Ev, symObjAddr: 0xCB54, symBinAddr: 0x100035F8C, symSize: 0x6C }
  - { offsetInCU: 0xA5B6, offset: 0x2BDA9, size: 0x8, addend: 0x0, symName: __ZNKSt3__116reverse_iteratorIPNS_6vectorIiNS_9allocatorIiEEEEE4baseB7v160006Ev, symObjAddr: 0xCBC0, symBinAddr: 0x100035FF8, symSize: 0x64 }
  - { offsetInCU: 0xA5DA, offset: 0x2BDCD, size: 0x8, addend: 0x0, symName: __ZNSt3__19allocatorINS_6vectorIiNS0_IiEEEEE7destroyB7v160006EPS3_, symObjAddr: 0xCC24, symBinAddr: 0x10003605C, symSize: 0x28 }
  - { offsetInCU: 0xA611, offset: 0x2BE04, size: 0x8, addend: 0x0, symName: __ZNSt3__119__to_address_helperINS_16reverse_iteratorIPNS_6vectorIiNS_9allocatorIiEEEEEEvE6__callB7v160006ERKS7_, symObjAddr: 0xCC4C, symBinAddr: 0x100036084, symSize: 0x44 }
  - { offsetInCU: 0xA633, offset: 0x2BE26, size: 0x8, addend: 0x0, symName: __ZNKSt3__116reverse_iteratorIPNS_6vectorIiNS_9allocatorIiEEEEEptB7v160006Ev, symObjAddr: 0xCC90, symBinAddr: 0x1000360C8, symSize: 0x24 }
  - { offsetInCU: 0xA657, offset: 0x2BE4A, size: 0x8, addend: 0x0, symName: __ZNKSt3__116reverse_iteratorIPNS_6vectorIiNS_9allocatorIiEEEEEdeB7v160006Ev, symObjAddr: 0xCCB4, symBinAddr: 0x1000360EC, symSize: 0x74 }
  - { offsetInCU: 0xA689, offset: 0x2BE7C, size: 0x8, addend: 0x0, symName: __ZNSt3__116reverse_iteratorIPNS_6vectorIiNS_9allocatorIiEEEEEC2B7v160006ES5_, symObjAddr: 0xCD28, symBinAddr: 0x100036160, symSize: 0xB8 }
  - { offsetInCU: 0xA6BF, offset: 0x2BEB2, size: 0x8, addend: 0x0, symName: __ZNSt3__16vectorINS0_IiNS_9allocatorIiEEEENS1_IS3_EEE21_ConstructTransactionD2B7v160006Ev, symObjAddr: 0xCDE0, symBinAddr: 0x100036218, symSize: 0x278 }
  - { offsetInCU: 0xA6E7, offset: 0x2BEDA, size: 0x8, addend: 0x0, symName: __ZNKSt3__16vectorINS0_IiNS_9allocatorIiEEEENS1_IS3_EEE17__annotate_shrinkB7v160006Em, symObjAddr: 0xD058, symBinAddr: 0x100036490, symSize: 0xE4 }
  - { offsetInCU: 0xA71A, offset: 0x2BF0D, size: 0x8, addend: 0x0, symName: __ZNSt3__128__exception_guard_exceptionsINS_6vectorINS1_IiNS_9allocatorIiEEEENS2_IS4_EEE16__destroy_vectorEED2B7v160006Ev, symObjAddr: 0xD13C, symBinAddr: 0x100036574, symSize: 0xBC }
  - { offsetInCU: 0xA742, offset: 0x2BF35, size: 0x8, addend: 0x0, symName: __ZNSt3__16vectorINS0_IiNS_9allocatorIiEEEENS1_IS3_EEE16__destroy_vectorclB7v160006Ev, symObjAddr: 0xD1F8, symBinAddr: 0x100036630, symSize: 0x264 }
  - { offsetInCU: 0xA766, offset: 0x2BF59, size: 0x8, addend: 0x0, symName: __ZNKSt3__16vectorINS0_IiNS_9allocatorIiEEEENS1_IS3_EEE17__annotate_deleteB7v160006Ev, symObjAddr: 0xD45C, symBinAddr: 0x100036894, symSize: 0xE8 }
  - { offsetInCU: 0xA78A, offset: 0x2BF7D, size: 0x8, addend: 0x0, symName: __ZNSt3__16vectorINS0_IiNS_9allocatorIiEEEENS1_IS3_EEE7__clearB7v160006Ev, symObjAddr: 0xD554, symBinAddr: 0x10003698C, symSize: 0x64 }
  - { offsetInCU: 0xA7AE, offset: 0x2BFA1, size: 0x8, addend: 0x0, symName: __ZNSt3__116allocator_traitsINS_9allocatorINS_6vectorIiNS1_IiEEEEEEE10deallocateB7v160006ERS5_PS4_m, symObjAddr: 0xD5B8, symBinAddr: 0x1000369F0, symSize: 0x34 }
  - { offsetInCU: 0xA7EF, offset: 0x2BFE2, size: 0x8, addend: 0x0, symName: __ZNSt3__16vectorINS0_IiNS_9allocatorIiEEEENS1_IS3_EEE22__base_destruct_at_endB7v160006EPS3_, symObjAddr: 0xD5EC, symBinAddr: 0x100036A24, symSize: 0x114 }
  - { offsetInCU: 0xA831, offset: 0x2C024, size: 0x8, addend: 0x0, symName: __ZNSt3__19allocatorINS_6vectorIiNS0_IiEEEEE10deallocateB7v160006EPS3_m, symObjAddr: 0xD700, symBinAddr: 0x100036B38, symSize: 0x50 }
  - { offsetInCU: 0xA871, offset: 0x2C064, size: 0x8, addend: 0x0, symName: __ZNSt3__16vectorINS0_IiNS_9allocatorIiEEEENS1_IS3_EEED2B7v160006Ev, symObjAddr: 0xD750, symBinAddr: 0x100036B88, symSize: 0x1F8 }
  - { offsetInCU: 0xA89A, offset: 0x2C08D, size: 0x8, addend: 0x0, symName: __ZNSt3__16vectorI5BlockNS_9allocatorIS1_EEEC2B7v160006Ev, symObjAddr: 0xD948, symBinAddr: 0x100036D80, symSize: 0x2F4 }
  - { offsetInCU: 0xA8C3, offset: 0x2C0B6, size: 0x8, addend: 0x0, symName: __ZNSt3__117__compressed_pairIP5BlockNS_9allocatorIS1_EEEC1B7v160006IDnNS_18__default_init_tagEEEOT_OT0_, symObjAddr: 0xDC3C, symBinAddr: 0x100037074, symSize: 0x3C }
  - { offsetInCU: 0xA919, offset: 0x2C10C, size: 0x8, addend: 0x0, symName: __ZNSt3__117__compressed_pairIP5BlockNS_9allocatorIS1_EEEC2B7v160006IDnNS_18__default_init_tagEEEOT_OT0_, symObjAddr: 0xDC88, symBinAddr: 0x1000370B0, symSize: 0x40 }
  - { offsetInCU: 0xA96F, offset: 0x2C162, size: 0x8, addend: 0x0, symName: __ZNSt3__122__compressed_pair_elemINS_9allocatorI5BlockEELi1ELb1EEC2B7v160006ENS_18__default_init_tagE, symObjAddr: 0xDD2C, symBinAddr: 0x1000370F0, symSize: 0x2C }
  - { offsetInCU: 0xA9A1, offset: 0x2C194, size: 0x8, addend: 0x0, symName: __ZNSt3__19allocatorI5BlockEC2B7v160006Ev, symObjAddr: 0xDD58, symBinAddr: 0x10003711C, symSize: 0x2C }
  - { offsetInCU: 0xA9C9, offset: 0x2C1BC, size: 0x8, addend: 0x0, symName: __ZNSt3__116__non_trivial_ifILb1ENS_9allocatorI5BlockEEEC2B7v160006Ev, symObjAddr: 0xDD84, symBinAddr: 0x100037148, symSize: 0x14 }
  - { offsetInCU: 0xA9F1, offset: 0x2C1E4, size: 0x8, addend: 0x0, symName: __ZNSt3__16vectorI5BlockNS_9allocatorIS1_EEE22__construct_one_at_endB7v160006IJRKS1_EEEvDpOT_, symObjAddr: 0xE8E4, symBinAddr: 0x10003715C, symSize: 0x36C }
  - { offsetInCU: 0xAA44, offset: 0x2C237, size: 0x8, addend: 0x0, symName: __ZNSt3__16vectorI5BlockNS_9allocatorIS1_EEE21__push_back_slow_pathIRKS1_EEvOT_, symObjAddr: 0xEC50, symBinAddr: 0x1000374C8, symSize: 0x3C0 }
  - { offsetInCU: 0xAAC0, offset: 0x2C2B3, size: 0x8, addend: 0x0, symName: __ZNSt3__16vectorI5BlockNS_9allocatorIS1_EEE21_ConstructTransactionC1B7v160006ERS4_m, symObjAddr: 0xF048, symBinAddr: 0x100037888, symSize: 0x3C }
  - { offsetInCU: 0xAB06, offset: 0x2C2F9, size: 0x8, addend: 0x0, symName: __ZNSt3__116allocator_traitsINS_9allocatorI5BlockEEE9constructB7v160006IS2_JRKS2_EvEEvRS3_PT_DpOT0_, symObjAddr: 0xF084, symBinAddr: 0x1000378C4, symSize: 0x34 }
  - { offsetInCU: 0xAB5C, offset: 0x2C34F, size: 0x8, addend: 0x0, symName: __ZNSt3__16vectorI5BlockNS_9allocatorIS1_EEE21_ConstructTransactionD1B7v160006Ev, symObjAddr: 0xF0B8, symBinAddr: 0x1000378F8, symSize: 0x2C }
  - { offsetInCU: 0xAB84, offset: 0x2C377, size: 0x8, addend: 0x0, symName: __ZNSt3__16vectorI5BlockNS_9allocatorIS1_EEE21_ConstructTransactionC2B7v160006ERS4_m, symObjAddr: 0xF0E4, symBinAddr: 0x100037924, symSize: 0x1D0 }
  - { offsetInCU: 0xABCA, offset: 0x2C3BD, size: 0x8, addend: 0x0, symName: __ZNKSt3__16vectorI5BlockNS_9allocatorIS1_EEE19__annotate_increaseB7v160006Em, symObjAddr: 0xF2B4, symBinAddr: 0x100037AF4, symSize: 0xD8 }
  - { offsetInCU: 0xABFD, offset: 0x2C3F0, size: 0x8, addend: 0x0, symName: __ZNSt3__19allocatorI5BlockE9constructB7v160006IS1_JRKS1_EEEvPT_DpOT0_, symObjAddr: 0xF38C, symBinAddr: 0x100037BCC, symSize: 0x34 }
  - { offsetInCU: 0xAC51, offset: 0x2C444, size: 0x8, addend: 0x0, symName: __ZNSt3__16vectorI5BlockNS_9allocatorIS1_EEE21_ConstructTransactionD2B7v160006Ev, symObjAddr: 0xF3C0, symBinAddr: 0x100037C00, symSize: 0x278 }
  - { offsetInCU: 0xAC79, offset: 0x2C46C, size: 0x8, addend: 0x0, symName: __ZNKSt3__16vectorI5BlockNS_9allocatorIS1_EEE11__recommendB7v160006Em, symObjAddr: 0xF700, symBinAddr: 0x100037E78, symSize: 0x384 }
  - { offsetInCU: 0xACD3, offset: 0x2C4C6, size: 0x8, addend: 0x0, symName: __ZNSt3__114__split_bufferI5BlockRNS_9allocatorIS1_EEEC1EmmS4_, symObjAddr: 0xFA84, symBinAddr: 0x1000381FC, symSize: 0x44 }
  - { offsetInCU: 0xAD27, offset: 0x2C51A, size: 0x8, addend: 0x0, symName: __ZNSt3__114__split_bufferI5BlockRNS_9allocatorIS1_EEED1Ev, symObjAddr: 0x1003C, symBinAddr: 0x1000387B4, symSize: 0x2C }
  - { offsetInCU: 0xAD51, offset: 0x2C544, size: 0x8, addend: 0x0, symName: __ZNKSt3__16vectorI5BlockNS_9allocatorIS1_EEE8max_sizeEv, symObjAddr: 0x10068, symBinAddr: 0x1000387E0, symSize: 0x2FC }
  - { offsetInCU: 0xAD78, offset: 0x2C56B, size: 0x8, addend: 0x0, symName: __ZNKSt3__16vectorI5BlockNS_9allocatorIS1_EEE20__throw_length_errorB7v160006Ev, symObjAddr: 0x10364, symBinAddr: 0x100038ADC, symSize: 0x20 }
  - { offsetInCU: 0xADA6, offset: 0x2C599, size: 0x8, addend: 0x0, symName: __ZNSt3__116allocator_traitsINS_9allocatorI5BlockEEE8max_sizeB7v160006IS3_vEEmRKS3_, symObjAddr: 0x103B0, symBinAddr: 0x100038AFC, symSize: 0x24 }
  - { offsetInCU: 0xADD3, offset: 0x2C5C6, size: 0x8, addend: 0x0, symName: __ZNKSt3__16vectorI5BlockNS_9allocatorIS1_EEE7__allocB7v160006Ev, symObjAddr: 0x103D4, symBinAddr: 0x100038B20, symSize: 0x28 }
  - { offsetInCU: 0xADF7, offset: 0x2C5EA, size: 0x8, addend: 0x0, symName: __ZNKSt3__19allocatorI5BlockE8max_sizeB7v160006Ev, symObjAddr: 0x103FC, symBinAddr: 0x100038B48, symSize: 0x14 }
  - { offsetInCU: 0xAE1B, offset: 0x2C60E, size: 0x8, addend: 0x0, symName: __ZNKSt3__117__compressed_pairIP5BlockNS_9allocatorIS1_EEE6secondB7v160006Ev, symObjAddr: 0x10410, symBinAddr: 0x100038B5C, symSize: 0x24 }
  - { offsetInCU: 0xAE3F, offset: 0x2C632, size: 0x8, addend: 0x0, symName: __ZNKSt3__122__compressed_pair_elemINS_9allocatorI5BlockEELi1ELb1EE5__getB7v160006Ev, symObjAddr: 0x10434, symBinAddr: 0x100038B80, symSize: 0x14 }
  - { offsetInCU: 0xAE63, offset: 0x2C656, size: 0x8, addend: 0x0, symName: __ZNSt3__114__split_bufferI5BlockRNS_9allocatorIS1_EEEC2EmmS4_, symObjAddr: 0x10630, symBinAddr: 0x100038B94, symSize: 0x520 }
  - { offsetInCU: 0xAEDC, offset: 0x2C6CF, size: 0x8, addend: 0x0, symName: __ZNSt3__117__compressed_pairIP5BlockRNS_9allocatorIS1_EEEC1B7v160006IDnS5_EEOT_OT0_, symObjAddr: 0x10B50, symBinAddr: 0x1000390B4, symSize: 0x3C }
  - { offsetInCU: 0xAF32, offset: 0x2C725, size: 0x8, addend: 0x0, symName: __ZNSt3__114__split_bufferI5BlockRNS_9allocatorIS1_EEE7__allocB7v160006Ev, symObjAddr: 0x10E18, symBinAddr: 0x10003937C, symSize: 0x28 }
  - { offsetInCU: 0xAF56, offset: 0x2C749, size: 0x8, addend: 0x0, symName: __ZNSt3__114__split_bufferI5BlockRNS_9allocatorIS1_EEE9__end_capB7v160006Ev, symObjAddr: 0x10E40, symBinAddr: 0x1000393A4, symSize: 0x28 }
  - { offsetInCU: 0xAF7A, offset: 0x2C76D, size: 0x8, addend: 0x0, symName: __ZNSt3__117__compressed_pairIP5BlockRNS_9allocatorIS1_EEEC2B7v160006IDnS5_EEOT_OT0_, symObjAddr: 0x10E68, symBinAddr: 0x1000393CC, symSize: 0x48 }
  - { offsetInCU: 0xAFD0, offset: 0x2C7C3, size: 0x8, addend: 0x0, symName: __ZNSt3__122__compressed_pair_elemIRNS_9allocatorI5BlockEELi1ELb0EEC2B7v160006IS4_vEEOT_, symObjAddr: 0x10EB0, symBinAddr: 0x100039414, symSize: 0x70 }
  - { offsetInCU: 0xB010, offset: 0x2C803, size: 0x8, addend: 0x0, symName: __ZNSt3__19allocatorI5BlockE8allocateB7v160006Em, symObjAddr: 0x10F20, symBinAddr: 0x100039484, symSize: 0x5C }
  - { offsetInCU: 0xB042, offset: 0x2C835, size: 0x8, addend: 0x0, symName: __ZNSt3__117__compressed_pairIP5BlockRNS_9allocatorIS1_EEE6secondB7v160006Ev, symObjAddr: 0x10F7C, symBinAddr: 0x1000394E0, symSize: 0x28 }
  - { offsetInCU: 0xB066, offset: 0x2C859, size: 0x8, addend: 0x0, symName: __ZNSt3__122__compressed_pair_elemIRNS_9allocatorI5BlockEELi1ELb0EE5__getB7v160006Ev, symObjAddr: 0x10FA4, symBinAddr: 0x100039508, symSize: 0x60 }
  - { offsetInCU: 0xB08A, offset: 0x2C87D, size: 0x8, addend: 0x0, symName: __ZNSt3__117__compressed_pairIP5BlockRNS_9allocatorIS1_EEE5firstB7v160006Ev, symObjAddr: 0x11004, symBinAddr: 0x100039568, symSize: 0x24 }
  - { offsetInCU: 0xB0AE, offset: 0x2C8A1, size: 0x8, addend: 0x0, symName: __ZNSt3__116reverse_iteratorIP5BlockEC1B7v160006ES2_, symObjAddr: 0x1156C, symBinAddr: 0x100039AD0, symSize: 0x34 }
  - { offsetInCU: 0xB0E4, offset: 0x2C8D7, size: 0x8, addend: 0x0, symName: __ZNKSt3__116reverse_iteratorIP5BlockE4baseB7v160006Ev, symObjAddr: 0x115A0, symBinAddr: 0x100039B04, symSize: 0x64 }
  - { offsetInCU: 0xB108, offset: 0x2C8FB, size: 0x8, addend: 0x0, symName: __ZNKSt3__16vectorI5BlockNS_9allocatorIS1_EEE14__annotate_newB7v160006Em, symObjAddr: 0x11738, symBinAddr: 0x100039C9C, symSize: 0xC0 }
  - { offsetInCU: 0xB13B, offset: 0x2C92E, size: 0x8, addend: 0x0, symName: __ZNSt3__129_AllocatorDestroyRangeReverseINS_9allocatorI5BlockEENS_16reverse_iteratorIPS2_EEEC1B7v160006ERS3_RS6_S9_, symObjAddr: 0x11A00, symBinAddr: 0x100039F64, symSize: 0x44 }
  - { offsetInCU: 0xB195, offset: 0x2C988, size: 0x8, addend: 0x0, symName: __ZNSt3__116allocator_traitsINS_9allocatorI5BlockEEE9constructB7v160006IS2_JS2_EvEEvRS3_PT_DpOT0_, symObjAddr: 0x11A8C, symBinAddr: 0x100039FF0, symSize: 0x34 }
  - { offsetInCU: 0xB1EB, offset: 0x2C9DE, size: 0x8, addend: 0x0, symName: __ZNKSt3__116reverse_iteratorIP5BlockEdeB7v160006Ev, symObjAddr: 0x11AE4, symBinAddr: 0x10003A048, symSize: 0x74 }
  - { offsetInCU: 0xB21D, offset: 0x2CA10, size: 0x8, addend: 0x0, symName: __ZNSt3__116reverse_iteratorIP5BlockEppB7v160006Ev, symObjAddr: 0x11B58, symBinAddr: 0x10003A0BC, symSize: 0x6C }
  - { offsetInCU: 0xB241, offset: 0x2CA34, size: 0x8, addend: 0x0, symName: __ZNSt3__128__exception_guard_exceptionsINS_29_AllocatorDestroyRangeReverseINS_9allocatorI5BlockEENS_16reverse_iteratorIPS3_EEEEE10__completeB7v160006Ev, symObjAddr: 0x11BC4, symBinAddr: 0x10003A128, symSize: 0x8C }
  - { offsetInCU: 0xB265, offset: 0x2CA58, size: 0x8, addend: 0x0, symName: __ZNSt3__128__exception_guard_exceptionsINS_29_AllocatorDestroyRangeReverseINS_9allocatorI5BlockEENS_16reverse_iteratorIPS3_EEEEED1B7v160006Ev, symObjAddr: 0x11C50, symBinAddr: 0x10003A1B4, symSize: 0x2C }
  - { offsetInCU: 0xB28D, offset: 0x2CA80, size: 0x8, addend: 0x0, symName: __ZNSt3__128__exception_guard_exceptionsINS_29_AllocatorDestroyRangeReverseINS_9allocatorI5BlockEENS_16reverse_iteratorIPS3_EEEEEC1B7v160006ES8_, symObjAddr: 0x11C7C, symBinAddr: 0x10003A1E0, symSize: 0x34 }
  - { offsetInCU: 0xB2C4, offset: 0x2CAB7, size: 0x8, addend: 0x0, symName: __ZNSt3__128__exception_guard_exceptionsINS_29_AllocatorDestroyRangeReverseINS_9allocatorI5BlockEENS_16reverse_iteratorIPS3_EEEEEC2B7v160006ES8_, symObjAddr: 0x11CB0, symBinAddr: 0x10003A214, symSize: 0xA4 }
  - { offsetInCU: 0xB2FB, offset: 0x2CAEE, size: 0x8, addend: 0x0, symName: __ZNSt3__129_AllocatorDestroyRangeReverseINS_9allocatorI5BlockEENS_16reverse_iteratorIPS2_EEEC2B7v160006ERS3_RS6_S9_, symObjAddr: 0x11D54, symBinAddr: 0x10003A2B8, symSize: 0x104 }
  - { offsetInCU: 0xB350, offset: 0x2CB43, size: 0x8, addend: 0x0, symName: __ZNSt3__19allocatorI5BlockE9constructB7v160006IS1_JS1_EEEvPT_DpOT0_, symObjAddr: 0x11E58, symBinAddr: 0x10003A3BC, symSize: 0x34 }
  - { offsetInCU: 0xB3A9, offset: 0x2CB9C, size: 0x8, addend: 0x0, symName: __ZNSt3__119__to_address_helperINS_16reverse_iteratorIP5BlockEEvE6__callB7v160006ERKS4_, symObjAddr: 0x11E8C, symBinAddr: 0x10003A3F0, symSize: 0x44 }
  - { offsetInCU: 0xB3CB, offset: 0x2CBBE, size: 0x8, addend: 0x0, symName: __ZNKSt3__116reverse_iteratorIP5BlockEptB7v160006Ev, symObjAddr: 0x11ED0, symBinAddr: 0x10003A434, symSize: 0x24 }
  - { offsetInCU: 0xB3EF, offset: 0x2CBE2, size: 0x8, addend: 0x0, symName: __ZNSt3__128__exception_guard_exceptionsINS_29_AllocatorDestroyRangeReverseINS_9allocatorI5BlockEENS_16reverse_iteratorIPS3_EEEEED2B7v160006Ev, symObjAddr: 0x11EF4, symBinAddr: 0x10003A458, symSize: 0xBC }
  - { offsetInCU: 0xB417, offset: 0x2CC0A, size: 0x8, addend: 0x0, symName: __ZNKSt3__129_AllocatorDestroyRangeReverseINS_9allocatorI5BlockEENS_16reverse_iteratorIPS2_EEEclB7v160006Ev, symObjAddr: 0x11FB0, symBinAddr: 0x10003A514, symSize: 0x3A8 }
  - { offsetInCU: 0xB43C, offset: 0x2CC2F, size: 0x8, addend: 0x0, symName: __ZNSt3__116reverse_iteratorINS0_IP5BlockEEEC1B7v160006ES3_, symObjAddr: 0x123C8, symBinAddr: 0x10003A92C, symSize: 0x248 }
  - { offsetInCU: 0xB477, offset: 0x2CC6A, size: 0x8, addend: 0x0, symName: __ZNSt3__116reverse_iteratorINS0_IP5BlockEEEppB7v160006Ev, symObjAddr: 0x12900, symBinAddr: 0x10003AE64, symSize: 0x30 }
  - { offsetInCU: 0xB49B, offset: 0x2CC8E, size: 0x8, addend: 0x0, symName: __ZNKSt3__116reverse_iteratorINS0_IP5BlockEEE4baseB7v160006Ev, symObjAddr: 0x12930, symBinAddr: 0x10003AE94, symSize: 0x20C }
  - { offsetInCU: 0xB4C5, offset: 0x2CCB8, size: 0x8, addend: 0x0, symName: __ZNSt3__119__to_address_helperINS_16reverse_iteratorINS1_IP5BlockEEEEvE6__callB7v160006ERKS5_, symObjAddr: 0x12B3C, symBinAddr: 0x10003B0A0, symSize: 0x44 }
  - { offsetInCU: 0xB4E7, offset: 0x2CCDA, size: 0x8, addend: 0x0, symName: __ZNKSt3__116reverse_iteratorINS0_IP5BlockEEEptB7v160006Ev, symObjAddr: 0x12B80, symBinAddr: 0x10003B0E4, symSize: 0x24 }
  - { offsetInCU: 0xB50B, offset: 0x2CCFE, size: 0x8, addend: 0x0, symName: __ZNKSt3__116reverse_iteratorINS0_IP5BlockEEEdeB7v160006Ev, symObjAddr: 0x12BA4, symBinAddr: 0x10003B108, symSize: 0x1EC }
  - { offsetInCU: 0xB542, offset: 0x2CD35, size: 0x8, addend: 0x0, symName: __ZNSt3__116reverse_iteratorIP5BlockEmmB7v160006Ev, symObjAddr: 0x12D90, symBinAddr: 0x10003B2F4, symSize: 0x6C }
  - { offsetInCU: 0xB566, offset: 0x2CD59, size: 0x8, addend: 0x0, symName: __ZNSt3__116reverse_iteratorINS0_IP5BlockEEEC2B7v160006ES3_, symObjAddr: 0x12DFC, symBinAddr: 0x10003B360, symSize: 0x22C }
  - { offsetInCU: 0xB5A1, offset: 0x2CD94, size: 0x8, addend: 0x0, symName: __ZNSt3__116reverse_iteratorIP5BlockEC2B7v160006ES2_, symObjAddr: 0x13028, symBinAddr: 0x10003B58C, symSize: 0xB8 }
  - { offsetInCU: 0xB5D7, offset: 0x2CDCA, size: 0x8, addend: 0x0, symName: __ZNSt3__114__split_bufferI5BlockRNS_9allocatorIS1_EEED2Ev, symObjAddr: 0x130E0, symBinAddr: 0x10003B644, symSize: 0x104 }
  - { offsetInCU: 0xB601, offset: 0x2CDF4, size: 0x8, addend: 0x0, symName: __ZNSt3__114__split_bufferI5BlockRNS_9allocatorIS1_EEE5clearB7v160006Ev, symObjAddr: 0x131E4, symBinAddr: 0x10003B748, symSize: 0x68 }
  - { offsetInCU: 0xB625, offset: 0x2CE18, size: 0x8, addend: 0x0, symName: __ZNKSt3__114__split_bufferI5BlockRNS_9allocatorIS1_EEE8capacityB7v160006Ev, symObjAddr: 0x1324C, symBinAddr: 0x10003B7B0, symSize: 0xBC }
  - { offsetInCU: 0xB649, offset: 0x2CE3C, size: 0x8, addend: 0x0, symName: __ZNSt3__114__split_bufferI5BlockRNS_9allocatorIS1_EEE17__destruct_at_endB7v160006EPS1_, symObjAddr: 0x13308, symBinAddr: 0x10003B86C, symSize: 0x2C }
  - { offsetInCU: 0xB67B, offset: 0x2CE6E, size: 0x8, addend: 0x0, symName: __ZNSt3__114__split_bufferI5BlockRNS_9allocatorIS1_EEE17__destruct_at_endB7v160006EPS1_NS_17integral_constantIbLb0EEE, symObjAddr: 0x13334, symBinAddr: 0x10003B898, symSize: 0x10C }
  - { offsetInCU: 0xB6B9, offset: 0x2CEAC, size: 0x8, addend: 0x0, symName: __ZNKSt3__114__split_bufferI5BlockRNS_9allocatorIS1_EEE9__end_capB7v160006Ev, symObjAddr: 0x13440, symBinAddr: 0x10003B9A4, symSize: 0x28 }
  - { offsetInCU: 0xB6DD, offset: 0x2CED0, size: 0x8, addend: 0x0, symName: __ZNKSt3__117__compressed_pairIP5BlockRNS_9allocatorIS1_EEE5firstB7v160006Ev, symObjAddr: 0x13468, symBinAddr: 0x10003B9CC, symSize: 0x24 }
  - { offsetInCU: 0x26, offset: 0x2D037, size: 0x8, addend: 0x0, symName: __ZN5AlienC2Ei7Vector2, symObjAddr: 0x0, symBinAddr: 0x10003D440, symSize: 0x5E4 }
  - { offsetInCU: 0x39, offset: 0x2D04A, size: 0x8, addend: 0x0, symName: __ZN5Alien11alienImagesE, symObjAddr: 0x7E60, symBinAddr: 0x100054840, symSize: 0x0 }
  - { offsetInCU: 0x6B, offset: 0x2D07C, size: 0x8, addend: 0x0, symName: _.str, symObjAddr: 0x1A20, symBinAddr: 0x100042100, symSize: 0x0 }
  - { offsetInCU: 0x94, offset: 0x2D0A5, size: 0x8, addend: 0x0, symName: _.str.1, symObjAddr: 0x1A60, symBinAddr: 0x100042140, symSize: 0x0 }
  - { offsetInCU: 0xA5, offset: 0x2D0B6, size: 0x8, addend: 0x0, symName: _.str.2, symObjAddr: 0x1AA0, symBinAddr: 0x100042180, symSize: 0x0 }
  - { offsetInCU: 0x2908, offset: 0x2F919, size: 0x8, addend: 0x0, symName: __ZN5AlienC2Ei7Vector2, symObjAddr: 0x0, symBinAddr: 0x10003D440, symSize: 0x5E4 }
  - { offsetInCU: 0x2954, offset: 0x2F965, size: 0x8, addend: 0x0, symName: __ZN5AlienC1Ei7Vector2, symObjAddr: 0x5E4, symBinAddr: 0x10003DA24, symSize: 0x368 }
  - { offsetInCU: 0x29A0, offset: 0x2F9B1, size: 0x8, addend: 0x0, symName: __ZN5AlienD2Ev, symObjAddr: 0x94C, symBinAddr: 0x10003DD8C, symSize: 0x14 }
  - { offsetInCU: 0x29CB, offset: 0x2F9DC, size: 0x8, addend: 0x0, symName: __ZN5AlienD1Ev, symObjAddr: 0x960, symBinAddr: 0x10003DDA0, symSize: 0x2C }
  - { offsetInCU: 0x29F5, offset: 0x2FA06, size: 0x8, addend: 0x0, symName: __ZN5Alien4DrawEv, symObjAddr: 0x98C, symBinAddr: 0x10003DDCC, symSize: 0x570 }
  - { offsetInCU: 0x2A1C, offset: 0x2FA2D, size: 0x8, addend: 0x0, symName: __ZN5Alien12UnloadImagesEv, symObjAddr: 0xEFC, symBinAddr: 0x10003E33C, symSize: 0x230 }
  - { offsetInCU: 0x2A50, offset: 0x2FA61, size: 0x8, addend: 0x0, symName: __ZN5Alien11AlienUpdateEi, symObjAddr: 0x112C, symBinAddr: 0x10003E56C, symSize: 0xA8 }
  - { offsetInCU: 0x2A84, offset: 0x2FA95, size: 0x8, addend: 0x0, symName: __ZN5Alien7getTypeEv, symObjAddr: 0x11D4, symBinAddr: 0x10003E614, symSize: 0x8C }
  - { offsetInCU: 0x2AAA, offset: 0x2FABB, size: 0x8, addend: 0x0, symName: __ZN5Alien7getRectEv, symObjAddr: 0x1260, symBinAddr: 0x10003E6A0, symSize: 0x704 }
  - { offsetInCU: 0x3B, offset: 0x2FB22, size: 0x8, addend: 0x0, symName: _.str, symObjAddr: 0x17A0, symBinAddr: 0x1000421C0, symSize: 0x0 }
  - { offsetInCU: 0x86, offset: 0x2FB6D, size: 0x8, addend: 0x0, symName: __ZN11MysteryShipC2Ev, symObjAddr: 0x0, symBinAddr: 0x10003EE3C, symSize: 0x28C }
  - { offsetInCU: 0xB1, offset: 0x2FB98, size: 0x8, addend: 0x0, symName: __ZN11MysteryShipC1Ev, symObjAddr: 0x28C, symBinAddr: 0x10003F0C8, symSize: 0x2C }
  - { offsetInCU: 0xDB, offset: 0x2FBC2, size: 0x8, addend: 0x0, symName: __ZN11MysteryShipD2Ev, symObjAddr: 0x2B8, symBinAddr: 0x10003F0F4, symSize: 0x208 }
  - { offsetInCU: 0x106, offset: 0x2FBED, size: 0x8, addend: 0x0, symName: __ZN11MysteryShipD1Ev, symObjAddr: 0x4CC, symBinAddr: 0x10003F2FC, symSize: 0x2C }
  - { offsetInCU: 0x130, offset: 0x2FC17, size: 0x8, addend: 0x0, symName: __ZN11MysteryShip4DrawEv, symObjAddr: 0x4F8, symBinAddr: 0x10003F328, symSize: 0x568 }
  - { offsetInCU: 0x157, offset: 0x2FC3E, size: 0x8, addend: 0x0, symName: __ZN11MysteryShip6UpdateEv, symObjAddr: 0xA60, symBinAddr: 0x10003F890, symSize: 0x334 }
  - { offsetInCU: 0x17D, offset: 0x2FC64, size: 0x8, addend: 0x0, symName: __ZN11MysteryShip5SpawnEv, symObjAddr: 0xD94, symBinAddr: 0x10003FBC4, symSize: 0x330 }
  - { offsetInCU: 0x1B1, offset: 0x2FC98, size: 0x8, addend: 0x0, symName: __ZN11MysteryShip7getRectEv, symObjAddr: 0x10C4, symBinAddr: 0x10003FEF4, symSize: 0x614 }
...
